
Optional file vector_offset_init.o not found
Archive member included to satisfy reference by file (symbol)

c:/program files/microchip/xc32/v4.21/bin/bin/../../lib/gcc/pic32mx/8.3.1/fpu64\libgcc.a(_udivdi3.o)
                              build/pic32mzef_c2_ak4954/production/_ext/784026422/sys_time.o (__udivdi3)
c:/program files/microchip/xc32/v4.21/bin/bin/../../lib/gcc/pic32mx/8.3.1/../../../../pic32mx/lib/fpu64\libpic32.a(memcmp.o)
                              build/pic32mzef_c2_ak4954/production/_ext/212299867/wav_dec.o (memcmp)
c:/program files/microchip/xc32/v4.21/bin/bin/../../lib/gcc/pic32mx/8.3.1/../../../../pic32mx/lib/fpu64\libpic32.a(memcpy.o)
                              build/pic32mzef_c2_ak4954/production/_ext/212299867/wav_dec.o (memcpy)
c:/program files/microchip/xc32/v4.21/bin/bin/../../lib/gcc/pic32mx/8.3.1/../../../../pic32mx/lib/fpu64\libpic32.a(memset.o)
                              build/pic32mzef_c2_ak4954/production/_ext/1500991179/drv_sdspi.o (memset)
c:/program files/microchip/xc32/v4.21/bin/bin/../../lib/gcc/pic32mx/8.3.1/../../../../pic32mx/lib/fpu64\libpic32.a(strcmp.o)
                              build/pic32mzef_c2_ak4954/production/_ext/344840758/sys_fs_media_manager.o (strcmp)
c:/program files/microchip/xc32/v4.21/bin/bin/../../lib/gcc/pic32mx/8.3.1/../../../../pic32mx/lib/fpu64\libpic32.a(strcpy.o)
                              build/pic32mzef_c2_ak4954/production/_ext/344840758/sys_fs.o (strcpy)
c:/program files/microchip/xc32/v4.21/bin/bin/../../lib/gcc/pic32mx/8.3.1/../../../../pic32mx/lib/fpu64\libpic32.a(strlen.o)
                              build/pic32mzef_c2_ak4954/production/_ext/344840758/sys_fs.o (strlen)
c:/program files/microchip/xc32/v4.21/bin/bin/../../lib/gcc/pic32mx/8.3.1/../../../../pic32mx/lib/fpu64\libpic32.a(default-on-reset.o)
                              C:\Users\spreg\AppData\Local\Temp\ccUeMUPf.o (_on_reset)
c:/program files/microchip/xc32/v4.21/bin/bin/../../lib/gcc/pic32mx/8.3.1/../../../../pic32mx/lib/fpu64\libpic32.a(default-on-bootstrap.o)
                              C:\Users\spreg\AppData\Local\Temp\ccUeMUPf.o (_on_bootstrap)
c:/program files/microchip/xc32/v4.21/bin/bin/../../lib/gcc/pic32mx/8.3.1/../../../../pic32mx/lib/fpu64\libpic32.a(default-nmi-handler.o)
                              C:\Users\spreg\AppData\Local\Temp\ccUeMUPf.o (_nmi_handler)
c:/program files/microchip/xc32/v4.21/bin/bin/../../lib/gcc/pic32mx/8.3.1/../../../../pic32mx/lib/fpu64\libpic32.a(pic32_data_init_wrapper.o)
                              C:\Users\spreg\AppData\Local\Temp\ccUeMUPf.o (__pic32_data_init)
c:/program files/microchip/xc32/v4.21/bin/bin/../../lib/gcc/pic32mx/8.3.1/../../../../pic32mx/lib/fpu64\libpic32.a(pic32_data_init_0_1.o)
                              (__copy_needed)
c:/program files/microchip/xc32/v4.21/bin/bin/../../lib/gcc/pic32mx/8.3.1/../../../../pic32mx/lib/fpu64\libpic32.a(pic32_init_cache.o)
                              C:\Users\spreg\AppData\Local\Temp\ccUeMUPf.o (__pic32_init_cache)
c:/program files/microchip/xc32/v4.21/bin/bin/../../lib/gcc/pic32mx/8.3.1/../../../../pic32mx/lib/fpu64\libpic32.a(pic32_init_tlb_ebi_sqi.o)
                              C:\Users\spreg\AppData\Local\Temp\ccUeMUPf.o (__pic32_tlb_init_ebi_sqi)
c:/program files/microchip/xc32/v4.21/bin/bin/../../lib/gcc/pic32mx/8.3.1/../../../../pic32mx/lib/fpu64\libpic32.a(general-exception.o)
                              C:\Users\spreg\AppData\Local\Temp\ccUeMUPf.o (_general_exception_context)
c:/program files/microchip/xc32/v4.21/bin/bin/../../lib/gcc/pic32mx/8.3.1/../../../../pic32mx/lib/fpu64\libpic32.a(cache-err-exception.o)
                              C:\Users\spreg\AppData\Local\Temp\ccUeMUPf.o (_cache_err_exception_context)
c:/program files/microchip/xc32/v4.21/bin/bin/../../lib/gcc/pic32mx/8.3.1/../../../../pic32mx/lib/fpu64\libpic32.a(simple-tlb-refill-exception.o)
                              C:\Users\spreg\AppData\Local\Temp\ccUeMUPf.o (_simple_tlb_refill_exception_context)
c:/program files/microchip/xc32/v4.21/bin/bin/../../lib/gcc/pic32mx/8.3.1/../../../../pic32mx/lib/fpu64\libpic32.a(defaultinterrupt.o)
                              C:\Users\spreg\AppData\Local\Temp\ccAcOKZk.o (_DefaultInterrupt)
c:/program files/microchip/xc32/v4.21/bin/bin/../../lib/gcc/pic32mx/8.3.1/../../../../pic32mx/lib/fpu64\libc-musl.a(__sio_printf_dosux.o)
                              build/pic32mzef_c2_ak4954/production/_ext/563155524/plib_i2s2.o (_printf_cdnopsuxX)
c:/program files/microchip/xc32/v4.21/bin/bin/../../lib/gcc/pic32mx/8.3.1/../../../../pic32mx/lib/fpu64\libc-musl.a(__fmt_d.o)
                              c:/program files/microchip/xc32/v4.21/bin/bin/../../lib/gcc/pic32mx/8.3.1/../../../../pic32mx/lib/fpu64\libc-musl.a(__sio_printf_dosux.o) (__fmt_d_needed)
c:/program files/microchip/xc32/v4.21/bin/bin/../../lib/gcc/pic32mx/8.3.1/../../../../pic32mx/lib/fpu64\libc-musl.a(__fmt_o.o)
                              c:/program files/microchip/xc32/v4.21/bin/bin/../../lib/gcc/pic32mx/8.3.1/../../../../pic32mx/lib/fpu64\libc-musl.a(__sio_printf_dosux.o) (__fmt_o_needed)
c:/program files/microchip/xc32/v4.21/bin/bin/../../lib/gcc/pic32mx/8.3.1/../../../../pic32mx/lib/fpu64\libc-musl.a(__fmt_s.o)
                              c:/program files/microchip/xc32/v4.21/bin/bin/../../lib/gcc/pic32mx/8.3.1/../../../../pic32mx/lib/fpu64\libc-musl.a(__sio_printf_dosux.o) (__fmt_s_needed)
c:/program files/microchip/xc32/v4.21/bin/bin/../../lib/gcc/pic32mx/8.3.1/../../../../pic32mx/lib/fpu64\libc-musl.a(__fmt_u.o)
                              c:/program files/microchip/xc32/v4.21/bin/bin/../../lib/gcc/pic32mx/8.3.1/../../../../pic32mx/lib/fpu64\libc-musl.a(__fmt_d.o) (__cvt_u)
c:/program files/microchip/xc32/v4.21/bin/bin/../../lib/gcc/pic32mx/8.3.1/../../../../pic32mx/lib/fpu64\libc-musl.a(__fmt_x.o)
                              c:/program files/microchip/xc32/v4.21/bin/bin/../../lib/gcc/pic32mx/8.3.1/../../../../pic32mx/lib/fpu64\libc-musl.a(__sio_printf_dosux.o) (__fmt_x_needed)
c:/program files/microchip/xc32/v4.21/bin/bin/../../lib/gcc/pic32mx/8.3.1/../../../../pic32mx/lib/fpu64\libc-musl.a(__pop_int.o)
                              c:/program files/microchip/xc32/v4.21/bin/bin/../../lib/gcc/pic32mx/8.3.1/../../../../pic32mx/lib/fpu64\libc-musl.a(__sio_printf_dosux.o) (__pop_int_needed)
c:/program files/microchip/xc32/v4.21/bin/bin/../../lib/gcc/pic32mx/8.3.1/../../../../pic32mx/lib/fpu64\libc-musl.a(__pop_ptr.o)
                              c:/program files/microchip/xc32/v4.21/bin/bin/../../lib/gcc/pic32mx/8.3.1/../../../../pic32mx/lib/fpu64\libc-musl.a(__sio_printf_dosux.o) (__pop_ptr_needed)
c:/program files/microchip/xc32/v4.21/bin/bin/../../lib/gcc/pic32mx/8.3.1/../../../../pic32mx/lib/fpu64\libc-musl.a(__printf_core.o)
                              c:/program files/microchip/xc32/v4.21/bin/bin/../../lib/gcc/pic32mx/8.3.1/../../../../pic32mx/lib/fpu64\libc-musl.a(__fmt_d.o) (__pad)
c:/program files/microchip/xc32/v4.21/bin/bin/../../lib/gcc/pic32mx/8.3.1/../../../../pic32mx/lib/fpu64\libc-musl.a(stdout.o)
                              c:/program files/microchip/xc32/v4.21/bin/bin/../../lib/gcc/pic32mx/8.3.1/../../../../pic32mx/lib/fpu64\libc-musl.a(__sio_printf_dosux.o) (_stdout)
c:/program files/microchip/xc32/v4.21/bin/bin/../../lib/gcc/pic32mx/8.3.1/../../../../pic32mx/lib/fpu64\libc-musl.a(atoi.o)
                              c:/program files/microchip/xc32/v4.21/bin/bin/../../lib/gcc/pic32mx/8.3.1/../../../../pic32mx/lib/fpu64\libc-musl.a(__printf_core.o) (atoi)
c:/program files/microchip/xc32/v4.21/bin/bin/../../lib/gcc/pic32mx/8.3.1/../../../../pic32mx/lib/fpu64\libc-musl.a(memmove.o)
                              build/pic32mzef_c2_ak4954/production/_ext/1892335699/diskio.o (memmove)
c:/program files/microchip/xc32/v4.21/bin/bin/../../lib/gcc/pic32mx/8.3.1/../../../../pic32mx/lib/fpu64\libc-musl.a(strcat.o)
                              build/pic32mzef_c2_ak4954/production/_ext/1360937237/app_sdcard_audio_task.o (strcat)
c:/program files/microchip/xc32/v4.21/bin/bin/../../lib/gcc/pic32mx/8.3.1/../../../../pic32mx/lib/fpu64\libc-musl.a(strncmp.o)
                              build/pic32mzef_c2_ak4954/production/_ext/344840758/sys_fs.o (strncmp)
c:/program files/microchip/xc32/v4.21/bin/bin/../../lib/gcc/pic32mx/8.3.1/../../../../pic32mx/lib/fpu64\libc-musl.a(tolower.o)
                              c:/program files/microchip/xc32/v4.21/bin/bin/../../lib/gcc/pic32mx/8.3.1/../../../../pic32mx/lib/fpu64\libc-musl.a(__printf_core.o) (tolower)
c:/program files/microchip/xc32/v4.21/bin/bin/../../lib/gcc/pic32mx/8.3.1/../../../../pic32mx/lib/fpu64\libc-musl.a(toupper.o)
                              c:/program files/microchip/xc32/v4.21/bin/bin/../../lib/gcc/pic32mx/8.3.1/../../../../pic32mx/lib/fpu64\libc-musl.a(__fmt_x.o) (toupper)
c:/program files/microchip/xc32/v4.21/bin/bin/../../lib/gcc/pic32mx/8.3.1/../../../../pic32mx/lib/fpu64\libc-musl.a(__int_vfprintf.o)
                              c:/program files/microchip/xc32/v4.21/bin/bin/../../lib/gcc/pic32mx/8.3.1/../../../../pic32mx/lib/fpu64\libc-musl.a(__sio_printf_dosux.o) (__vfprintf)
c:/program files/microchip/xc32/v4.21/bin/bin/../../lib/gcc/pic32mx/8.3.1/../../../../pic32mx/lib/fpu64\libc-musl.a(__fopen.o)
                              c:/program files/microchip/xc32/v4.21/bin/bin/../../lib/gcc/pic32mx/8.3.1/../../../../pic32mx/lib/fpu64\libc-musl.a(stdout.o) (__stdio_seek)
c:/program files/microchip/xc32/v4.21/bin/bin/../../lib/gcc/pic32mx/8.3.1/../../../../pic32mx/lib/fpu64\libc-musl.a(__io_init_needed.o)
                              c:/program files/microchip/xc32/v4.21/bin/bin/../../lib/gcc/pic32mx/8.3.1/../../../../pic32mx/lib/fpu64\libc-musl.a(stdout.o) (__io_init_needed)
c:/program files/microchip/xc32/v4.21/bin/bin/../../lib/gcc/pic32mx/8.3.1/../../../../pic32mx/lib/fpu64\libc-musl.a(__out.o)
                              c:/program files/microchip/xc32/v4.21/bin/bin/../../lib/gcc/pic32mx/8.3.1/../../../../pic32mx/lib/fpu64\libc-musl.a(stdout.o) (__stdio_write_unbuffered)
c:/program files/microchip/xc32/v4.21/bin/bin/../../lib/gcc/pic32mx/8.3.1/../../../../pic32mx/lib/fpu64\libc-musl.a(__pop_float.o)
                              c:/program files/microchip/xc32/v4.21/bin/bin/../../lib/gcc/pic32mx/8.3.1/../../../../pic32mx/lib/fpu64\libc-musl.a(__printf_core.o) (__pop_float)
c:/program files/microchip/xc32/v4.21/bin/bin/../../lib/gcc/pic32mx/8.3.1/../../../../pic32mx/lib/fpu64\libc-musl.a(__stdio_close.o)
                              c:/program files/microchip/xc32/v4.21/bin/bin/../../lib/gcc/pic32mx/8.3.1/../../../../pic32mx/lib/fpu64\libc-musl.a(stdout.o) (__stdio_close_rw)
c:/program files/microchip/xc32/v4.21/bin/bin/../../lib/gcc/pic32mx/8.3.1/../../../../pic32mx/lib/fpu64\libc-musl.a(malloc.o)
                              c:/program files/microchip/xc32/v4.21/bin/bin/../../lib/gcc/pic32mx/8.3.1/../../../../pic32mx/lib/fpu64\libc-musl.a(__fopen.o) (malloc)
c:/program files/microchip/xc32/v4.21/bin/bin/../../lib/gcc/pic32mx/8.3.1/../../../../pic32mx/lib/fpu64\libc-musl.a(expand_heap.o)
                              c:/program files/microchip/xc32/v4.21/bin/bin/../../lib/gcc/pic32mx/8.3.1/../../../../pic32mx/lib/fpu64\libc-musl.a(malloc.o) (__expand_heap)
c:/program files/microchip/xc32/v4.21/bin/bin/../../lib/gcc/pic32mx/8.3.1/../../../../pic32mx/lib/fpu64\libc-musl.a(__init_stdio.o)
                              c:/program files/microchip/xc32/v4.21/bin/bin/../../lib/gcc/pic32mx/8.3.1/../../../../pic32mx/lib/fpu64\libc-musl.a(__io_init_needed.o) (__init_stdio_needed)
c:/program files/microchip/xc32/v4.21/bin/bin/../../lib/gcc/pic32mx/8.3.1/../../../../pic32mx/lib/fpu64\libc-musl.a(__io_file_needed.o)
                              c:/program files/microchip/xc32/v4.21/bin/bin/../../lib/gcc/pic32mx/8.3.1/../../../../pic32mx/lib/fpu64\libc-musl.a(__io_init_needed.o) (__io_file_needed)
c:/program files/microchip/xc32/v4.21/bin/bin/../../lib/gcc/pic32mx/8.3.1/../../../../pic32mx/lib/fpu64\libc-musl.a(libc.o)
                              c:/program files/microchip/xc32/v4.21/bin/bin/../../lib/gcc/pic32mx/8.3.1/../../../../pic32mx/lib/fpu64\libc-musl.a(malloc.o) (__libc)
c:/program files/microchip/xc32/v4.21/bin/bin/../../lib/gcc/pic32mx/8.3.1/fpu64\libgcc.a(_lshrdi3.o)
                              c:/program files/microchip/xc32/v4.21/bin/bin/../../lib/gcc/pic32mx/8.3.1/../../../../pic32mx/lib/fpu64\libc-musl.a(malloc.o) (__lshrdi3)
c:/program files/microchip/xc32/v4.21/bin/bin/../../lib/gcc/pic32mx/8.3.1/fpu64\libgcc.a(_ashldi3.o)
                              c:/program files/microchip/xc32/v4.21/bin/bin/../../lib/gcc/pic32mx/8.3.1/../../../../pic32mx/lib/fpu64\libc-musl.a(malloc.o) (__ashldi3)
c:/program files/microchip/xc32/v4.21/bin/bin/../../lib/gcc/pic32mx/8.3.1/fpu64\libgcc.a(_umoddi3.o)
                              c:/program files/microchip/xc32/v4.21/bin/bin/../../lib/gcc/pic32mx/8.3.1/../../../../pic32mx/lib/fpu64\libc-musl.a(__fmt_u.o) (__umoddi3)
c:/program files/microchip/xc32/v4.21/bin/bin/../../lib/gcc/pic32mx/8.3.1/../../../../pic32mx/lib/fpu64\libpic32.a(sbrk.o)
                              c:/program files/microchip/xc32/v4.21/bin/bin/../../lib/gcc/pic32mx/8.3.1/../../../../pic32mx/lib/fpu64\libc-musl.a(expand_heap.o) (_sbrk)
c:/program files/microchip/xc32/v4.21/bin/bin/../../lib/gcc/pic32mx/8.3.1/../../../../pic32mx/lib/fpu64\libpic32.a(write.o)
                              c:/program files/microchip/xc32/v4.21/bin/bin/../../lib/gcc/pic32mx/8.3.1/../../../../pic32mx/lib/fpu64\libc-musl.a(__out.o) (write)
c:/program files/microchip/xc32/v4.21/bin/bin/../../lib/gcc/pic32mx/8.3.1/../../../../pic32mx/lib/fpu64\libpic32.a(lseek.o)
                              c:/program files/microchip/xc32/v4.21/bin/bin/../../lib/gcc/pic32mx/8.3.1/../../../../pic32mx/lib/fpu64\libc-musl.a(__stdio_close.o) (lseek)
c:/program files/microchip/xc32/v4.21/bin/bin/../../lib/gcc/pic32mx/8.3.1/../../../../pic32mx/lib/fpu64\libpic32.a(close.o)
                              c:/program files/microchip/xc32/v4.21/bin/bin/../../lib/gcc/pic32mx/8.3.1/../../../../pic32mx/lib/fpu64\libc-musl.a(__stdio_close.o) (close)
c:/program files/microchip/xc32/v4.21/bin/bin/../../lib/gcc/pic32mx/8.3.1/../../../../pic32mx/lib/fpu64\libpic32.a(errno.o)
                              c:/program files/microchip/xc32/v4.21/bin/bin/../../lib/gcc/pic32mx/8.3.1/../../../../pic32mx/lib/fpu64\libc-musl.a(__printf_core.o) (errno)

Allocating common symbols
Common symbol       size              file

AppDataAudioCardData
                    0x128             build/pic32mzef_c2_ak4954/production/_ext/1360937237/app_sdcard_audio_task.o
gSYSFSObj           0x8               build/pic32mzef_c2_ak4954/production/_ext/344840758/sys_fs.o
gDrvI2SBufferObj    0x280             build/pic32mzef_c2_ak4954/production/_ext/450163651/drv_i2s.o
appData             0xc               build/pic32mzef_c2_ak4954/production/_ext/1360937237/app.o
gDrvak4954ClientObj
                    0x14              build/pic32mzef_c2_ak4954/production/_ext/1856562345/drv_ak4954.o
playerStreaming     0x1               build/pic32mzef_c2_ak4954/production/_ext/1360937237/app_sdcard_audio_task.o
command_array       0x14              build/pic32mzef_c2_ak4954/production/_ext/1856562345/drv_ak4954.o
gSysFsMutex         0x1               build/pic32mzef_c2_ak4954/production/_ext/344840758/sys_fs.o
sysObj              0x14              build/pic32mzef_c2_ak4954/production/_ext/79412797/initialization.o
sampling_frequency  0x4               build/pic32mzef_c2_ak4954/production/_ext/1360937237/decoder.o
gSYSFSFileObj       0x220             build/pic32mzef_c2_ak4954/production/_ext/344840758/sys_fs.o
gSYSFSDirObj        0x20              build/pic32mzef_c2_ak4954/production/_ext/344840758/sys_fs.o
AppSdCardAudioData  0x39a0            build/pic32mzef_c2_ak4954/production/_ext/1360937237/app_sdcard_audio_task.o
decoderBitrate      0x4               build/pic32mzef_c2_ak4954/production/_ext/1360937237/decoder.o
gSYSFSMountPoint    0x14              build/pic32mzef_c2_ak4954/production/_ext/344840758/sys_fs.o
decoderSamplerate   0x4               build/pic32mzef_c2_ak4954/production/_ext/1360937237/decoder.o
coreTmr             0x8               build/pic32mzef_c2_ak4954/production/_ext/131824383/plib_coretimer.o
gDrvak4954CommonDataObj
                    0x2               build/pic32mzef_c2_ak4954/production/_ext/1856562345/drv_ak4954.o
FileListAvailable   0x1               build/pic32mzef_c2_ak4954/production/_ext/1360937237/app_sdcard_audio_task.o
spi1Obj             0x28              build/pic32mzef_c2_ak4954/production/_ext/603446335/plib_spi1_master.o
playerFileAdvanceStep
                    0x4               build/pic32mzef_c2_ak4954/production/_ext/1360937237/app_sdcard_audio_task.o
AppSdCardAudioContext
                    0x4               build/pic32mzef_c2_ak4954/production/_ext/1360937237/app_sdcard_audio_task.o
AppDataAudioPlayerPtr
                    0x4               build/pic32mzef_c2_ak4954/production/_ext/1360937237/app_sdcard_audio_task.o
gSYSFSMediaObject   0x2c              build/pic32mzef_c2_ak4954/production/_ext/344840758/sys_fs_media_manager.o
gSYSFSCurrentMountPoint
                    0x8               build/pic32mzef_c2_ak4954/production/_ext/344840758/sys_fs.o
gDrvCommandBuffer   0x40              build/pic32mzef_c2_ak4954/production/_ext/1856562345/drv_ak4954.o
gDrvak4954Obj       0xc4              build/pic32mzef_c2_ak4954/production/_ext/1856562345/drv_ak4954.o
errorValue          0x4               build/pic32mzef_c2_ak4954/production/_ext/344840758/sys_fs.o
max_cnt             0x4               build/pic32mzef_c2_ak4954/production/_ext/450163651/drv_i2s.o
gDrvI2SObj          0x5c              build/pic32mzef_c2_ak4954/production/_ext/450163651/drv_i2s.o
gSYSFSVolumeObject  0x1c              build/pic32mzef_c2_ak4954/production/_ext/344840758/sys_fs_media_manager.o
AppSdCardAudioCardCurrentLFN
                    0xff              build/pic32mzef_c2_ak4954/production/_ext/1360937237/app_sdcard_audio_task.o
VolToPart           0x2               build/pic32mzef_c2_ak4954/production/_ext/344840758/sys_fs_media_manager.o
loop_count          0x4               build/pic32mzef_c2_ak4954/production/_ext/1360937237/app_sdcard_audio_task.o

Microchip PIC32 Memory-Usage Report

kseg0 Program-Memory Usage
section                    address  length [bytes]      (dec)  Description
-------                 ----------  -------------------------  -----------
.simple_tlb_refill_excp 0x9d000000           0x10          16   
.text.SYS_TIME_AddToLis 0x9d000010           0xec         236   
.cache_err_excpt        0x9d000100           0x10          16   
.text.DRV_I2S_Open      0x9d000110           0x70         112   
.app_excpt              0x9d000180           0x10          16  General-Exception 
.text.move_window       0x9d000190           0x70         112   
.vectors                0x9d000200           0x80         128   
.text.DRV_SDSPI_Tasks   0x9d000280         0x2cc0       11456   
.text._DRV_SDSPI_Comman 0x9d002f40          0xd68        3432   
.text.f_mkfs            0x9d003ca8          0xb00        2816   
.text.SYS_FS_MEDIA_MANA 0x9d0047a8          0x718        1816   
.dinit                  0x9d004ec0          0x6d0        1744   
.text                   0x9d005590          0x6bc        1724  App's exec code 
.text.follow_path       0x9d005c4c          0x5f8        1528   
.text.DRV_AK4954_Tasks  0x9d006244          0x5a4        1444   
.text.__printf_core     0x9d0067e8          0x580        1408   
.text.mount_volume      0x9d006d68          0x530        1328   
.text.I2C1_MASTER_Inter 0x9d007298          0x4d0        1232   
.text.f_printf          0x9d007768          0x4c8        1224   
.text._DRV_I2C_WriteRea 0x9d007c30          0x454        1108   
.text.dir_register      0x9d008084          0x420        1056   
.text                   0x9d0084a4          0x774        1908  App's exec code 
.rodata                 0x9d008c18          0x3b0         944  Read-only const 
.text.f_open            0x9d008fc8          0x388         904   
.text.DRV_SDSPI_SetupXf 0x9d009350          0x370         880   
.text.SPI1_RX_Interrupt 0x9d0096c0          0x320         800   
.text.f_write           0x9d0099e0          0x310         784   
.text.SPI1_WriteRead    0x9d009cf0          0x304         772   
.text.I2S2_RefClockSet  0x9d009ff4          0x2e8         744   
.text.SYS_FS_MEDIA_MANA 0x9d00a2dc          0x2dc         732   
.text.f_lseek           0x9d00a5b8          0x2d8         728   
.text.dir_find          0x9d00a890          0x2bc         700   
.text.get_fileinfo      0x9d00ab4c          0x2b8         696   
.text.f_read            0x9d00ae04          0x2b0         688   
.text.f_setlabel        0x9d00b0b4          0x2ac         684   
.text.create_partition  0x9d00b360          0x294         660   
.text._DRV_I2C_PLibCall 0x9d00b5f4          0x27c         636   
.text.SYS_FS_Mount      0x9d00b870          0x268         616   
.text.dir_read          0x9d00bad8          0x248         584   
.text.f_getcwd          0x9d00bd20          0x240         576   
.text.create_chain      0x9d00bf60          0x234         564   
.text.APP_SDCARD_AUDIO_ 0x9d00c194          0x22c         556   
.text._DRV_I2S_BufferQu 0x9d00c3c0          0x21c         540   
.text.APP_SDCARD_AUDIO_ 0x9d00c5dc          0x208         520   
.text.__fmt_x           0x9d00c7e4          0x208         520   
.text.disk_write        0x9d00c9ec          0x1fc         508   
.text.put_fat           0x9d00cbe8          0x1f4         500   
.text.disk_read         0x9d00cddc          0x1f0         496   
.text.f_mkdir           0x9d00cfcc          0x1e8         488   
.text.APP_SDCARD_AUDIO_ 0x9d00d1b4          0x1e4         484   
.text.CORE_TIMER_Handle 0x9d00d398          0x1d0         464   
.text.SPI1_RX_Handler   0x9d00d568          0x1d0         464   
.text.SPI1_TX_Handler   0x9d00d738          0x1d0         464   
.text.I2C1_BUS_Handler  0x9d00d908          0x1d0         464   
.text.I2C1_MASTER_Handl 0x9d00dad8          0x1d0         464   
.text.DMA0_Handler      0x9d00dca8          0x1d0         464   
.text.DMA1_Handler      0x9d00de78          0x1d0         464   
.text.SYS_TIME_PLIBCall 0x9d00e048          0x1cc         460   
.text.SYS_FS_FileOpen   0x9d00e214          0x1c8         456   
.text.DRV_SDSPI_Initial 0x9d00e3dc          0x1c0         448   
.text.f_rename          0x9d00e59c          0x1bc         444   
.rodata                 0x9d00e758          0x1b0         432  Read-only const 
.text.DRV_AK4954_Open   0x9d00e908          0x1ac         428   
.text.DRV_I2S_WriteBuff 0x9d00eab4          0x1ac         428   
.text                   0x9d00ec60          0x1a0         416  App's exec code 
.text.f_getfree         0x9d00ee00          0x198         408   
.text.DRV_I2C_Open      0x9d00ef98          0x194         404   
.text.check_fs          0x9d00f12c          0x18c         396   
.text.__pop_int         0x9d00f2b8          0x188         392   
.text.APP_Tasks         0x9d00f440          0x184         388   
.text.dir_next          0x9d00f5c4          0x180         384   
.text.SYS_TIME_HwTimerC 0x9d00f744          0x178         376   
.text.get_fat           0x9d00f8bc          0x174         372   
.text.DRV_SDSPI_Open    0x9d00fa30          0x16c         364   
.text.SYS_FS_FileSeek   0x9d00fb9c          0x16c         364   
.text.dir_sdi           0x9d00fd08          0x168         360   
.text.SYS_FS_Unmount    0x9d00fe70          0x168         360   
.text                   0x9d00ffd8          0x2d0         720  App's exec code 
.text.APP_SDCARD_AUDIO_ 0x9d0102a8          0x164         356   
.text.DRV_AK4954_Initia 0x9d01040c          0x160         352   
.text.GPIO_Initialize   0x9d01056c          0x160         352   
.text.DRV_AK4954_Volume 0x9d0106cc          0x15c         348   
.text.f_truncate        0x9d010828          0x15c         348   
.text.SPI1_TX_Interrupt 0x9d010984          0x158         344   
.text.SYS_FS_GetDisk    0x9d010adc          0x158         344   
.text.APP_SDCARD_AUDIO_ 0x9d010c34          0x158         344   
.text.DRV_SDSPI_Close   0x9d010d8c          0x154         340   
.text.__fmt_d           0x9d010ee0          0x150         336   
.text.SYS_FS_DirOpen    0x9d011030          0x144         324   
.rodata                 0x9d011174          0x140         320  Read-only const 
.text.ff_wtoupper       0x9d0112b4          0x140         320   
.text.SYS_TIME_Initiali 0x9d0113f4          0x13c         316   
.text.__cvt_u           0x9d011530          0x13c         316   
.text.DMA1_InterruptHan 0x9d01166c          0x138         312   
.text.DMA0_InterruptHan 0x9d0117a4          0x134         308   
.text.f_unlink          0x9d0118d8          0x134         308   
.text.inc_lock          0x9d011a0c          0x130         304   
.text.f_getlabel        0x9d011b3c          0x12c         300   
.text.SYS_DMA_ChannelTr 0x9d011c68          0x128         296   
.text.SYS_TIME_TimerObj 0x9d011d90          0x128         296   
.text.SYS_Initialize    0x9d011eb8          0x124         292   
.text.APP_SDCARD_AUDIO_ 0x9d011fdc          0x124         292   
.text.FATFS_open        0x9d012100          0x120         288   
.text                   0x9d012220          0x120         288  App's exec code 
.text.APP_SDCARD_AUDIO_ 0x9d012340          0x11c         284   
.text.APP_SDCARD_AUDIO_ 0x9d01245c          0x114         276   
.text.remove_chain      0x9d012570          0x108         264   
.text.f_sync            0x9d012678          0x108         264   
.text.f_opendir         0x9d012780          0x108         264   
.text.DMAC_ChannelTrans 0x9d012888          0x104         260   
.text.I2C1_TransferSetu 0x9d01298c          0x104         260   
.text.DRV_I2S_Initializ 0x9d012a90          0x100         256   
.text.DMAC_ChannelSetAd 0x9d012b90          0x100         256   
.text.__pad             0x9d012c90          0x100         256   
.text._DRV_I2C_Resource 0x9d012d90           0xf4         244   
.text.__fmt_o           0x9d012e84           0xf4         244   
.text.DECODER_EventHand 0x9d012f78           0xec         236   
.text.FATFS_unmount     0x9d013064           0xe8         232   
.text.SYS_FS_CurrentDri 0x9d01314c           0xe4         228   
.text.__pop_ptr         0x9d013230           0xe4         228   
.text.chk_lock          0x9d013314           0xe0         224   
.text.SYS_FS_Initialize 0x9d0133f4           0xe0         224   
.text.SYS_FS_FileStat   0x9d0134d4           0xe0         224   
.text.CLK_Initialize    0x9d0135b4           0xdc         220   
.text.sync_fs           0x9d013690           0xdc         220   
.text.general_exception 0x9d01376c           0xdc         220   
.text.WAV_Initialize    0x9d013848           0xd8         216   
.text.DRV_AK4954_Sampli 0x9d013920           0xd8         216   
.text._cache_err_except 0x9d0139f8           0xd8         216   
.text.simple_tlb_refill 0x9d013ad0           0xd8         216   
.text._DRV_I2C_Resource 0x9d013ba8           0xd4         212   
.rodata                 0x9d013c7c           0xd4         212  Read-only const 
.text.SYS_FS_MEDIA_MANA 0x9d013d50           0xd4         212   
.text.DRV_I2C_Initializ 0x9d013e24           0xcc         204   
.text.SYS_FS_FileClose  0x9d013ef0           0xc8         200   
.text.SYS_FS_FileRead   0x9d013fb8           0xc8         200   
.text.SYS_FS_DirClose   0x9d014080           0xc8         200   
.text.dir_alloc         0x9d014148           0xc4         196   
.text.SYS_FS_DirRead    0x9d01420c           0xc4         196   
.text.APP_PlayerCommand 0x9d0142d0           0xc4         196   
.text.disk_checkCommand 0x9d014394           0xc0         192   
.text.SYS_FS_FileTell   0x9d014454           0xc0         192   
.text.SYS_FS_FileSize   0x9d014514           0xc0         192   
.text.__stdio_close_rw  0x9d0145d4           0xc0         192   
.text.dir_clear         0x9d014694           0xbc         188   
.text.f_gets            0x9d014750           0xbc         188   
.tlb.__pic32_tlb_init_e 0x9d01480c           0xbc         188   
.text.__fmt_u           0x9d0148c8           0xbc         188   
.text._getAK4954_sample 0x9d014984           0xb8         184   
.text._DRV_I2S_BufferOb 0x9d014a3c           0xb8         184   
.text.SPI1_TransferSetu 0x9d014af4           0xb8         184   
.text.dir_remove        0x9d014bac           0xb8         184   
.text.FATFS_mount       0x9d014c64           0xb8         184   
.text.DRV_SDSPI_Command 0x9d014d1c           0xb4         180   
.text.f_mount           0x9d014dd0           0xb4         180   
.text.f_chdir           0x9d014e84           0xb0         176   
.text.SYS_FS_FileEOF    0x9d014f34           0xb0         176   
.text.DRV_AK4954_Close  0x9d014fe4           0xac         172   
.text.SYS_FS_MEDIA_MANA 0x9d015090           0xac         172   
.text.SYS_TIME_TimerSta 0x9d01513c           0xac         172   
.text.APP_SDCARD_AUDIO_ 0x9d0151e8           0xac         172   
.text.DRV_AK4954_Buffer 0x9d015294           0xa8         168   
.text                   0x9d01533c           0xa8         168  App's exec code 
.text._DRV_SDSPI_Driver 0x9d0153e4           0xa4         164   
.text.sync_window       0x9d015488           0xa4         164   
.text.SYS_TIME_Callback 0x9d01552c           0xa4         164   
.text.__fmt_s           0x9d0155d0           0xa4         164   
.text.DRV_I2S_RefClockS 0x9d015674           0xa0         160   
.text.f_chmod           0x9d015714           0xa0         160   
.text.FATFS_opendir     0x9d0157b4           0x9c         156   
.text.APP_SDCARD_AUDIO_ 0x9d015850           0x9c         156   
.text.DMAC_Initialize   0x9d0158ec           0x98         152   
.text.validate          0x9d015984           0x98         152   
.text._SYS_FS_MEDIA_MAN 0x9d015a1c           0x98         152   
.text                   0x9d015ab4           0x98         152  App's exec code 
.text.f_utime           0x9d015b4c           0x94         148   
.text.SYS_TIME_RemoveFr 0x9d015be0           0x94         148   
.text.DRV_I2S_BaudRateS 0x9d015c74           0x90         144   
.text.I2S2_BaudRateSet  0x9d015d04           0x8c         140   
.text._DRV_SDSPI_SPIWri 0x9d015d90           0x8c         140   
.text._DRV_SDSPI_SPIRea 0x9d015e1c           0x8c         140   
.text.I2C1_WriteRead    0x9d015ea8           0x8c         140   
.text.dec_lock          0x9d015f34           0x8c         140   
.text.putc_bfd          0x9d015fc0           0x8c         140   
.text.f_readdir         0x9d01604c           0x8c         140   
.text.__out             0x9d0160d8           0x8c         140   
.text._DRV_AK4954_Comma 0x9d016164           0x88         136   
.text.I2C1_Read         0x9d0161ec           0x88         136   
.text.I2C1_Write        0x9d016274           0x88         136   
.text.I2C1_WriteForced  0x9d0162fc           0x88         136   
.text.SPI1_Initialize   0x9d016384           0x88         136   
.text.SYS_TIME_TimerAdd 0x9d01640c           0x88         136   
.text.write             0x9d016494           0x88         136   
.text._DRV_AK4954_I2SBu 0x9d01651c           0x84         132   
.text.DRV_AK4954_MuteOf 0x9d0165a0           0x84         132   
.text.DRV_I2C_TransferE 0x9d016624           0x84         132   
.text._DRV_SDSPI_SPISpe 0x9d0166a8           0x84         132   
.text.SYS_FS_FileNameGe 0x9d01672c           0x84         132   
.text.get_ldnumber      0x9d0167b0           0x80         128   
.text.disk_ioctl        0x9d016830           0x80         128   
.text.SYS_TIME_GetTimer 0x9d0168b0           0x80         128   
.text.dinit.startup     0x9d016930           0x80         128   
.text.DRV_AK4954_Buffer 0x9d0169b0           0x7c         124   
.text._calcRefclock     0x9d016a2c           0x7c         124   
.text.I2S2_Initialize   0x9d016aa8           0x7c         124   
.text.FATFS_getclusters 0x9d016b24           0x7c         124   
.text.APP_SDCARD_AUDIO_ 0x9d016ba0           0x7c         124   
.text.DECODER_Initializ 0x9d016c1c           0x7c         124   
.text.atoi              0x9d016c98           0x7c         124   
.text.DRV_I2S_Close     0x9d016d14           0x78         120   
.text.DRV_I2S_BufferEve 0x9d016d8c           0x78         120   
.text.f_stat            0x9d016e04           0x78         120   
.text.SYS_TIME_TimerDes 0x9d016e7c           0x78         120   
.text.APP_SDCARD_AUDIO_ 0x9d016ef4           0x78         120   
.text.UART6_Write       0x9d016f6c           0x74         116   
.text.f_fdisk           0x9d016fe0           0x74         116   
.text.disk_read_aligned 0x9d017054           0x74         116   
.text.SYS_FS_MEDIA_MANA 0x9d0170c8           0x74         116   
.text.ff_uni2oem        0x9d01713c           0x70         112   
.text.SYS_TIME_UpdateTi 0x9d0171ac           0x70         112   
.text.APP_SDCARD_AUDIO_ 0x9d01721c           0x6c         108   
.text.APP_Initialize    0x9d017288           0x6c         108   
.text._DRV_I2C_DriverHa 0x9d0172f4           0x68         104   
.text._DRV_SDSPI_SPIWri 0x9d01735c           0x68         104   
.text.f_puts            0x9d0173c4           0x68         104   
.text.SYS_FS_MEDIA_MANA 0x9d01742c           0x68         104   
.text.APP_SDCARD_AUDIO_ 0x9d017494           0x68         104   
.text.memmove           0x9d0174fc           0x68         104   
.text._DRV_I2S_Resource 0x9d017564           0x64         100   
.text.CORETIMER_Start   0x9d0175c8           0x64         100   
.text.EVIC_Initialize   0x9d01762c           0x64         100   
.text.I2C1_Initialize   0x9d017690           0x64         100   
.text._DRV_I2S_WriteBuf 0x9d0176f4           0x60          96   
.rodata.str1.4          0x9d017754           0x60          96   
.text.I2C1_BUS_Interrup 0x9d0177b4           0x60          96   
.text.putc_flush        0x9d017814           0x60          96   
.text.SYS_FS_MEDIA_MANA 0x9d017874           0x60          96   
.text.APP_SDCARD_AUDIO_ 0x9d0178d4           0x60          96   
.text.APP_SDCARD_AUDIO_ 0x9d017934           0x60          96   
.text._DRV_I2S_TX_DMA_C 0x9d017994           0x5c          92   
.text._DRV_I2S_Resource 0x9d0179f0           0x5c          92   
.text._DRV_I2S_ReadBuff 0x9d017a4c           0x5c          92   
.text.f_closedir        0x9d017aa8           0x5c          92   
.text.SYS_FS_MEDIA_MANA 0x9d017b04           0x5c          92   
.text.APP_SDCARD_AUDIO_ 0x9d017b60           0x5c          92   
.text.AK4954_I2CEventHa 0x9d017bbc           0x58          88   
.text.DRV_SDSPI_IsAttac 0x9d017c14           0x58          88   
.text.tchar2uni         0x9d017c6c           0x58          88   
.text.diskEventHandler  0x9d017cc4           0x58          88   
.text.SYS_INT_SourceDis 0x9d017d1c           0x58          88   
.text.SYS_TIME_Resource 0x9d017d74           0x58          88   
.text.__fmt_state       0x9d017dcc           0x58          88   
.rodata.str1.4          0x9d017e24           0x54          84   
.text.f_putc            0x9d017e78           0x54          84   
.text.ff_oem2uni        0x9d017ecc           0x54          84   
.text.APP_SDCARD_AUDIO_ 0x9d017f20           0x54          84   
.text.main_entry        0x9d017f74           0x54          84   
.text._DRV_I2S_RX_DMA_C 0x9d017fc8           0x50          80   
.text.WAV_Decoder       0x9d018018           0x4c          76   
.text.f_close           0x9d018064           0x4c          76   
.text.SYS_FS_MEDIA_MANA 0x9d0180b0           0x4c          76   
.text.FATFS_readdir     0x9d0180fc           0x4c          76   
.text.APP_SysFSEventHan 0x9d018148           0x4c          76   
.text.APP_SDCARD_AUDIO_ 0x9d018194           0x4c          76   
.text.DRV_SDSPI_Geometr 0x9d0181e0           0x48          72   
.text._DRV_SDSPI_CardDe 0x9d018228           0x48          72   
.text._DRV_SDSPI_CmdRes 0x9d018270           0x48          72   
.text._DRV_SDSPI_TimerS 0x9d0182b8           0x48          72   
.text.FATFS_stat        0x9d018300           0x48          72   
.text.APP_SDCARD_AUDIO_ 0x9d018348           0x48          72   
.text.strncmp           0x9d018390           0x48          72   
.text.__pop_float       0x9d0183d8           0x48          72   
.text.SYS_CACHE_Invalid 0x9d018420           0x44          68   
.text.SYS_CACHE_CleanDC 0x9d018464           0x44          68   
.text.FATFS_close       0x9d0184a8           0x44          68   
.text.FATFS_closedir    0x9d0184ec           0x44          68   
.text.APP_SDCARD_AUDIO_ 0x9d018530           0x44          68   
.text.main              0x9d018574           0x44          68   
.text                   0x9d0185b8           0x44          68  App's exec code 
.text.DRV_SDSPI_EventHa 0x9d0185fc           0x40          64   
.text.ld_clust          0x9d01863c           0x40          64   
.text.FATFS_mkfs        0x9d01867c           0x40          64   
.text.SYS_TIME_Resource 0x9d0186bc           0x40          64   
.text.SYS_Tasks         0x9d0186fc           0x40          64   
.text.BSP_Initialize    0x9d01873c           0x3c          60   
.text.CORE_TIMER_Interr 0x9d018778           0x3c          60   
.text.APP_SDCARD_AUDIO_ 0x9d0187b4           0x3c          60   
.text.__wrap_printf     0x9d0187f0           0x3c          60   
.text.__vfprintf        0x9d01882c           0x3c          60   
.text._DRV_I2S_Validate 0x9d018868           0x38          56   
.text._DRV_SDSPI_CmdRes 0x9d0188a0           0x38          56   
.text._DRV_SDSPI_TimerS 0x9d0188d8           0x38          56   
.text.SYS_TIME_Counter6 0x9d018910           0x38          56   
.text.SYS_TIME_GetElaps 0x9d018948           0x38          56   
.text.DECODER_Decode    0x9d018980           0x38          56   
.text.strcat            0x9d0189b8           0x38          56   
.text.CORETIMER_Stop    0x9d0189f0           0x34          52   
.text.UART6_Initialize  0x9d018a24           0x34          52   
.text.f_chdrive         0x9d018a58           0x34          52   
.text.APP_SDCARD_AUDIO_ 0x9d018a8c           0x34          52   
.text.APP_SDCARD_AUDIO_ 0x9d018ac0           0x34          52   
.text.DRV_I2C_ForcedWri 0x9d018af4           0x30          48   
.text.DRV_I2C_WriteTran 0x9d018b24           0x30          48   
.text._DRV_SDSPI_SPIPli 0x9d018b54           0x30          48   
.rodata                 0x9d018b84           0x30          48  Read-only const 
.text.clst2sect         0x9d018bb4           0x30          48   
.text.sum_sfn           0x9d018be4           0x30          48   
.text.st_clust          0x9d018c14           0x30          48   
.text.SYS_FS_MEDIA_MANA 0x9d018c44           0x30          48   
.text.FATFS_chdrive     0x9d018c74           0x30          48   
.text.APP_SDCARD_AUDIO_ 0x9d018ca4           0x30          48   
.text.APP_SDCARD_AUDIO_ 0x9d018cd4           0x30          48   
.text.APP_SDCARD_AUDIO_ 0x9d018d04           0x30          48   
.text.APP_SDCARD_AUDIO_ 0x9d018d34           0x30          48   
.text.CORETIMER_Initial 0x9d018d64           0x2c          44   
.text.ld_dword          0x9d018d90           0x2c          44   
.text.SYS_INT_SourceRes 0x9d018dbc           0x2c          44   
.text.APP_SDCARD_AUDIO_ 0x9d018de8           0x2c          44   
.text.DRV_SDSPI_AsyncWr 0x9d018e14           0x28          40   
.text.DRV_SDSPI_Registe 0x9d018e3c           0x28          40   
.text.EVIC_SourceEnable 0x9d018e64           0x28          40   
.text.EVIC_SourceDisabl 0x9d018e8c           0x28          40   
.text.EVIC_INT_Restore  0x9d018eb4           0x28          40   
.text.SPI1_Read         0x9d018edc           0x28          40   
.text.SYS_FS_MEDIA_MANA 0x9d018f04           0x28          40   
.text.DRV_SDSPI_AsyncRe 0x9d018f2c           0x24          36   
.text.CACHE_DataCacheCl 0x9d018f50           0x24          36   
.text.CACHE_DataCacheIn 0x9d018f74           0x24          36   
.text.SYS_DMA_Addressin 0x9d018f98           0x24          36   
.text.mem_cpy           0x9d018fbc           0x24          36   
.text.disk_initialize   0x9d018fe0           0x24          36   
.text.APP_SDCARD_AUDIO_ 0x9d019004           0x24          36   
.text.I2S2_LRCLK_Get    0x9d019028           0x20          32   
.text.EVIC_SourceIsEnab 0x9d019048           0x20          32   
.text.EVIC_INT_Disable  0x9d019068           0x20          32   
.text.SPI1_Write        0x9d019088           0x20          32   
.text.SYS_DMA_DataWidth 0x9d0190a8           0x20          32   
.text.st_dword          0x9d0190c8           0x20          32   
.rodata.str1.4          0x9d0190e8           0x40          64   
.text.APP_SDCARD_AUDIO_ 0x9d019128           0x20          32   
.text.APP_SDCARD_AUDIO_ 0x9d019148           0x20          32   
.text.dinit.startup     0x9d019168           0x20          32   
.text.__fwrite_min      0x9d019188           0x20          32   
.text.CACHE_CacheCohere 0x9d0191a8           0x1c          28   
.text.CORETIMER_Compare 0x9d0191c4           0x1c          28   
.text.DMAC_ChannelCallb 0x9d0191e0           0x1c          28   
.text.GPIO_PortSet      0x9d0191fc           0x1c          28   
.text.GPIO_PortClear    0x9d019218           0x1c          28   
.text.I2C1_CallbackRegi 0x9d019234           0x1c          28   
.text.get_fattime       0x9d019250           0x1c          28   
.text.SYS_FS_Tasks      0x9d01926c           0x1c          28   
.text.SYS_FS_EventHandl 0x9d019288           0x1c          28   
.text.FATFS_read        0x9d0192a4           0x1c          28   
.text.FATFS_lseek       0x9d0192c0           0x1c          28   
.text.FATFS_getlabel    0x9d0192dc           0x1c          28   
.text.FATFS_getcwd      0x9d0192f8           0x1c          28   
.text.FATFS_gets        0x9d019314           0x1c          28   
.text.FATFS_chdir       0x9d019330           0x1c          28   
.text.FATFS_write       0x9d01934c           0x1c          28   
.text.FATFS_mkdir       0x9d019368           0x1c          28   
.text.FATFS_unlink      0x9d019384           0x1c          28   
.text.FATFS_setlabel    0x9d0193a0           0x1c          28   
.text.FATFS_truncate    0x9d0193bc           0x1c          28   
.text.FATFS_chmod       0x9d0193d8           0x1c          28   
.text.FATFS_utime       0x9d0193f4           0x1c          28   
.text.FATFS_rename      0x9d019410           0x1c          28   
.text.FATFS_sync        0x9d01942c           0x1c          28   
.text.FATFS_putc        0x9d019448           0x1c          28   
.text.FATFS_puts        0x9d019464           0x1c          28   
.text.FATFS_printf      0x9d019480           0x1c          28   
.text.FATFS_fdisk       0x9d01949c           0x1c          28   
.text.SYS_INT_Disable   0x9d0194b8           0x1c          28   
.text.SYS_INT_Restore   0x9d0194d4           0x1c          28   
.text.APP_SDCARD_AUDIO_ 0x9d0194f0           0x1c          28   
.text.APP_SDCARD_AUDIO_ 0x9d01950c           0x1c          28   
.text.tolower           0x9d019528           0x1c          28   
.text.toupper           0x9d019544           0x1c          28   
.MIPS.abiflags          0x9d019560           0x18          24   
.rodata.cst8            0x9d019578           0x18          24   
.text.CORETIMER_Counter 0x9d019590           0x18          24   
.rodata.cst8            0x9d0195a8           0x18          24   
.text.mem_set           0x9d0195c0           0x18          24   
.text._general_exceptio 0x9d0195d8           0x18          24   
.text._bootstrap_except 0x9d0195f0           0x18          24   
.text._cache_err_except 0x9d019608           0x18          24   
.text._simple_tlb_refil 0x9d019620           0x18          24   
.text                   0x9d019638           0x18          24  App's exec code 
.rodata                 0x9d019650           0x18          24  Read-only const 
.text.I2C1_ErrorGet     0x9d019668           0x14          20   
.text.SPI1_IsTransmitte 0x9d01967c           0x14          20   
.text.SPI1_CallbackRegi 0x9d019690           0x14          20   
.text.FATFS_eof         0x9d0196a4           0x14          20   
.text.CORETIMER_Callbac 0x9d0196b8           0x10          16   
.rodata.str1.4          0x9d0196c8           0x10          16   
.text._APP_BUTTON_PRESS 0x9d0196d8           0x10          16   
.text.DRV_SDSPI_TimerCa 0x9d0196e8            0xc          12   
.text.CORETIMER_Frequen 0x9d0196f4            0xc          12   
.text.SYS_FS_MEDIA_MANA 0x9d019700            0xc          12   
.text.FATFS_error       0x9d01970c            0xc          12   
.text.APP_SDCARD_AUDIO_ 0x9d019718            0xc          12   
.text.APP_SDCARD_AUDIO_ 0x9d019724            0xc          12   
.text.APP_StreamSourceG 0x9d019730            0xc          12   
.text.isWAVdecoder_enab 0x9d01973c            0x8           8   
.rodata.cst4            0x9d019744            0x8           8   
.text._mon_putc         0x9d01974c            0x8           8   
.text.disk_status       0x9d019754            0x8           8   
.rodata.str1.4          0x9d01975c            0x8           8   
.text.SYS_FS_Error      0x9d019764            0x8           8   
.rodata                 0x9d01976c            0x8           8  Read-only const 
.text.FATFS_tell        0x9d019774            0x8           8   
.text.FATFS_size        0x9d01977c            0x8           8   
.text.DECODER_Cleanup   0x9d019784            0x8           8   
.text._on_reset         0x9d01978c            0x8           8   
.text._on_bootstrap     0x9d019794            0x8           8   
.text.__dummy_fmt4      0x9d01979c            0x8           8   
.rodata.str1.4          0x9d0197a4            0x8           8   
.text.__dummy           0x9d0197ac            0x8           8   
.text.lseek             0x9d0197b4            0x8           8   
.text.close             0x9d0197bc            0x8           8   
      Total kseg0_program_mem used  :     0x197c0      104384  5.0% of 0x200000

kseg0 Boot-Memory Usage
section                    address  length [bytes]      (dec)  Description
-------                 ----------  -------------------------  -----------
         Total kseg0_boot_mem used  :           0           0  

kseg1 Boot-Memory Usage
section                    address  length [bytes]      (dec)  Description
-------                 ----------  -------------------------  -----------
.reset                  0xbfc00000          0x1c4         452  Reset handler 
.bev_excpt              0xbfc00380           0x10          16  BEV-Exception 
         Total kseg1_boot_mem used  :       0x1d4         468  40.6% of 0x480
        --------------------------------------------------------------------------
         Total Program Memory used  :     0x19994      104852  5.0% of 0x200480
        --------------------------------------------------------------------------


Data-Memory Usage
section                    address  length [bytes]      (dec)  Description
-------                 ----------  -------------------------  -----------
.sdata                  0x80000000           0x28          40  Small init data 
.sbss                   0x80000028           0x9c         156  Small uninit data 
.bss                    0x800000c4         0x42b4       17076  Uninitialized data 
.data                   0x80004378           0xa8         168  Initialized data 
.data                   0x80004420           0x36          54  Initialized data 
.data._stdout           0x80004458            0x4           4   
.bss                    0x8000445c         0x7e60       32352  Uninitialized data 
.bss                    0x8000cf1c          0x250         592  Uninitialized data 
.bss                    0x8000d3a8          0x220         544  Uninitialized data 
.bss.errno              0x8000d5c8            0x4           4   
.bss                    0x8000d9e0          0x1c4         452  Uninitialized data 
.bss                    0x8000dba4           0x94         148  Uninitialized data 
.bss                    0x8000dca8           0xa4         164  Uninitialized data 
.bss                    0x8000dd4c           0x74         116  Uninitialized data 
.bss.gSYSFSMediaBlockBu 0xa000c2bc          0x800        2048   
.bss.FATFSFileObject    0xa000cabc          0x460        1120   
.bss.FATFSVolume        0xa000d16c          0x23c         572   
.bss.gSysFsDiskData     0xa000d5d0          0x210         528   
.bss.gSYSFSMediaBuffer  0xa000d7e0          0x200         512   
.bss.FATFSDirObject     0xa000dc38           0x70         112   
.bss.gDrvSDSPITempCidDa 0xa000ddc0           0x14          20   
.bss.gDrvSDSPICidData   0xa000ddd4           0x14          20   
.bss.gDrvSDSPICsdData   0xa000dde8           0x14          20   
.bss.gDrvSDSPICmdRespon 0xa000ddfc           0x10          16   
.bss.gDrvSDSPIClkPulseD 0xa000de0c            0xa          10   
         Total kseg0/kseg1 data_mem used  :      0xde10       56848  10.8% of 0x80000
        --------------------------------------------------------------------------
            Total Data Memory used  :      0xde10       56848  10.8% of 0x80000
        --------------------------------------------------------------------------


Dynamic Data-Memory Reservation
section                    address  length [bytes]      (dec)  Description
-------                 ----------  -------------------------  -----------
heap                    0x8000de18         0x1000        4096  Reserved for heap 
stack                   0x8000ee30        0x711c0      463296  Reserved for stack 

        --------------------------------------------------------------------------

Discarded input sections

 .text          0x0000000000000000        0x0 c:/program files/microchip/xc32/v4.21/bin/bin/../../lib/gcc/pic32mx/8.3.1/../../../../pic32mx/lib/fpu64\debug-exception-return.o
 .data          0x0000000000000000        0x0 c:/program files/microchip/xc32/v4.21/bin/bin/../../lib/gcc/pic32mx/8.3.1/../../../../pic32mx/lib/fpu64\debug-exception-return.o
 .bss           0x0000000000000000        0x0 c:/program files/microchip/xc32/v4.21/bin/bin/../../lib/gcc/pic32mx/8.3.1/../../../../pic32mx/lib/fpu64\debug-exception-return.o
 .xc_stack_usage.hdr
                0x0000000000000000        0xe c:/program files/microchip/xc32/v4.21/bin/bin/../../lib/gcc/pic32mx/8.3.1/../../../../pic32mx/lib/fpu64\debug-exception-return.o
 .xc_stack_usage
                0x0000000000000000       0x1d c:/program files/microchip/xc32/v4.21/bin/bin/../../lib/gcc/pic32mx/8.3.1/../../../../pic32mx/lib/fpu64\debug-exception-return.o
 .text          0x0000000000000000        0x0 build/pic32mzef_c2_ak4954/production/_ext/212299867/wav_dec.o
 .data          0x0000000000000000        0x0 build/pic32mzef_c2_ak4954/production/_ext/212299867/wav_dec.o
 .reginfo       0x0000000000000000       0x18 build/pic32mzef_c2_ak4954/production/_ext/212299867/wav_dec.o
 .MIPS.abiflags
                0x0000000000000000       0x18 build/pic32mzef_c2_ak4954/production/_ext/212299867/wav_dec.o
 .text.WAV_GetFormat
                0x0000000000000000        0xc build/pic32mzef_c2_ak4954/production/_ext/212299867/wav_dec.o
 .text.WAV_GetChannels
                0x0000000000000000        0xc build/pic32mzef_c2_ak4954/production/_ext/212299867/wav_dec.o
 .text.WAV_GetSamplesPerSec
                0x0000000000000000        0xc build/pic32mzef_c2_ak4954/production/_ext/212299867/wav_dec.o
 .text.WAV_GetBlockAlign
                0x0000000000000000        0xc build/pic32mzef_c2_ak4954/production/_ext/212299867/wav_dec.o
 .text.WAV_GetBitsPerSample
                0x0000000000000000        0xc build/pic32mzef_c2_ak4954/production/_ext/212299867/wav_dec.o
 .text.WAV_GetBytesPerSec
                0x0000000000000000        0xc build/pic32mzef_c2_ak4954/production/_ext/212299867/wav_dec.o
 .text.WAV_GetDataLen
                0x0000000000000000        0xc build/pic32mzef_c2_ak4954/production/_ext/212299867/wav_dec.o
 .text.WAV_GetFileSize
                0x0000000000000000       0x10 build/pic32mzef_c2_ak4954/production/_ext/212299867/wav_dec.o
 .text.WAV_GetSampleRate
                0x0000000000000000        0xc build/pic32mzef_c2_ak4954/production/_ext/212299867/wav_dec.o
 .text.WAV_GetBitRate
                0x0000000000000000        0xc build/pic32mzef_c2_ak4954/production/_ext/212299867/wav_dec.o
 .text.WAV_GetDuration
                0x0000000000000000       0x20 build/pic32mzef_c2_ak4954/production/_ext/212299867/wav_dec.o
 .text.WAV_Initialize_N
                0x0000000000000000       0xd0 build/pic32mzef_c2_ak4954/production/_ext/212299867/wav_dec.o
 .rodata.str1.4
                0x0000000000000000       0x20 build/pic32mzef_c2_ak4954/production/_ext/212299867/wav_dec.o
 .text.WAV_Initialize_SkipOpts
                0x0000000000000000      0x324 build/pic32mzef_c2_ak4954/production/_ext/212299867/wav_dec.o
 .text.WAV_UpdatePlaytime
                0x0000000000000000       0x50 build/pic32mzef_c2_ak4954/production/_ext/212299867/wav_dec.o
 .text.WAV_GetAudioSize
                0x0000000000000000        0xc build/pic32mzef_c2_ak4954/production/_ext/212299867/wav_dec.o
 .text          0x0000000000000000        0x0 build/pic32mzef_c2_ak4954/production/_ext/1856562345/drv_ak4954.o
 .data          0x0000000000000000        0x0 build/pic32mzef_c2_ak4954/production/_ext/1856562345/drv_ak4954.o
 .bss           0x0000000000000000        0x0 build/pic32mzef_c2_ak4954/production/_ext/1856562345/drv_ak4954.o
 .reginfo       0x0000000000000000       0x18 build/pic32mzef_c2_ak4954/production/_ext/1856562345/drv_ak4954.o
 .MIPS.abiflags
                0x0000000000000000       0x18 build/pic32mzef_c2_ak4954/production/_ext/1856562345/drv_ak4954.o
 .text.DRV_AK4954_Deinitialize
                0x0000000000000000       0x30 build/pic32mzef_c2_ak4954/production/_ext/1856562345/drv_ak4954.o
 .text.DRV_AK4954_ClientReady
                0x0000000000000000       0x1c build/pic32mzef_c2_ak4954/production/_ext/1856562345/drv_ak4954.o
 .text.DRV_AK4954_Status
                0x0000000000000000       0x1c build/pic32mzef_c2_ak4954/production/_ext/1856562345/drv_ak4954.o
 .text.DRV_AK4954_EnableInitialization
                0x0000000000000000       0x30 build/pic32mzef_c2_ak4954/production/_ext/1856562345/drv_ak4954.o
 .text.DRV_AK4954_IsInitializationDelayed
                0x0000000000000000       0x14 build/pic32mzef_c2_ak4954/production/_ext/1856562345/drv_ak4954.o
 .text.DRV_AK4954_BufferAddWriteRead
                0x0000000000000000       0x84 build/pic32mzef_c2_ak4954/production/_ext/1856562345/drv_ak4954.o
 .text.DRV_AK4954_BufferAddRead
                0x0000000000000000       0x7c build/pic32mzef_c2_ak4954/production/_ext/1856562345/drv_ak4954.o
 .text.DRV_AK4954_WriteQueuePurge
                0x0000000000000000       0x20 build/pic32mzef_c2_ak4954/production/_ext/1856562345/drv_ak4954.o
 .text.DRV_AK4954_ReadQueuePurge
                0x0000000000000000       0x20 build/pic32mzef_c2_ak4954/production/_ext/1856562345/drv_ak4954.o
 .text.DRV_AK4954_I2SBufferHandlerSet
                0x0000000000000000       0x48 build/pic32mzef_c2_ak4954/production/_ext/1856562345/drv_ak4954.o
 .text.DRV_AK4954_SamplingRateGet
                0x0000000000000000       0x2c build/pic32mzef_c2_ak4954/production/_ext/1856562345/drv_ak4954.o
 .text.DRV_AK4954_VolumeGet
                0x0000000000000000       0x30 build/pic32mzef_c2_ak4954/production/_ext/1856562345/drv_ak4954.o
 .text.DRV_AK4954_MuteOn
                0x0000000000000000       0x88 build/pic32mzef_c2_ak4954/production/_ext/1856562345/drv_ak4954.o
 .text.DRV_AK4954_DigitalBlockModeSet
                0x0000000000000000       0xa4 build/pic32mzef_c2_ak4954/production/_ext/1856562345/drv_ak4954.o
 .text._convertGainToMGain
                0x0000000000000000       0x38 build/pic32mzef_c2_ak4954/production/_ext/1856562345/drv_ak4954.o
 .text.DRV_AK4954_MicSet
                0x0000000000000000      0x18c build/pic32mzef_c2_ak4954/production/_ext/1856562345/drv_ak4954.o
 .text.DRV_AK4954_IntExtMicSet
                0x0000000000000000       0x30 build/pic32mzef_c2_ak4954/production/_ext/1856562345/drv_ak4954.o
 .text.DRV_AK4954_MicGainSet
                0x0000000000000000      0x18c build/pic32mzef_c2_ak4954/production/_ext/1856562345/drv_ak4954.o
 .text.DRV_AK4954_MonoStereoMicSet
                0x0000000000000000       0xf4 build/pic32mzef_c2_ak4954/production/_ext/1856562345/drv_ak4954.o
 .text.DRV_AK4954_CommandEventHandlerSet
                0x0000000000000000       0x30 build/pic32mzef_c2_ak4954/production/_ext/1856562345/drv_ak4954.o
 .rodata.str1.4
                0x0000000000000000        0x8 build/pic32mzef_c2_ak4954/production/_ext/1856562345/drv_ak4954.o
 .text.DRV_AK4954_VersionStrGet
                0x0000000000000000        0xc build/pic32mzef_c2_ak4954/production/_ext/1856562345/drv_ak4954.o
 .text.DRV_AK4954_VersionGet
                0x0000000000000000        0x8 build/pic32mzef_c2_ak4954/production/_ext/1856562345/drv_ak4954.o
 .text.DRV_AK4954_GetI2SDriver
                0x0000000000000000       0x44 build/pic32mzef_c2_ak4954/production/_ext/1856562345/drv_ak4954.o
 .text.DRV_AK4954_LRCLK_Sync
                0x0000000000000000       0x2c build/pic32mzef_c2_ak4954/production/_ext/1856562345/drv_ak4954.o
 .text          0x0000000000000000        0x0 build/pic32mzef_c2_ak4954/production/_ext/450163651/drv_i2s.o
 .data          0x0000000000000000        0x0 build/pic32mzef_c2_ak4954/production/_ext/450163651/drv_i2s.o
 .bss           0x0000000000000000        0x0 build/pic32mzef_c2_ak4954/production/_ext/450163651/drv_i2s.o
 .reginfo       0x0000000000000000       0x18 build/pic32mzef_c2_ak4954/production/_ext/450163651/drv_i2s.o
 .MIPS.abiflags
                0x0000000000000000       0x18 build/pic32mzef_c2_ak4954/production/_ext/450163651/drv_i2s.o
 .text.DRV_I2S_Status
                0x0000000000000000       0x18 build/pic32mzef_c2_ak4954/production/_ext/450163651/drv_i2s.o
 .text.DRV_I2S_ErrorGet
                0x0000000000000000       0x7c build/pic32mzef_c2_ak4954/production/_ext/450163651/drv_i2s.o
 .text.DRV_I2S_WriteReadBufferAdd
                0x0000000000000000      0x230 build/pic32mzef_c2_ak4954/production/_ext/450163651/drv_i2s.o
 .text.DRV_I2S_ReadBufferAdd
                0x0000000000000000      0x1b0 build/pic32mzef_c2_ak4954/production/_ext/450163651/drv_i2s.o
 .text.DRV_I2S_BufferCompletedBytesGet
                0x0000000000000000       0x68 build/pic32mzef_c2_ak4954/production/_ext/450163651/drv_i2s.o
 .text.DRV_I2S_BufferStatusGet
                0x0000000000000000       0x3c build/pic32mzef_c2_ak4954/production/_ext/450163651/drv_i2s.o
 .text.DRV_I2S_WriteQueuePurge
                0x0000000000000000       0x5c build/pic32mzef_c2_ak4954/production/_ext/450163651/drv_i2s.o
 .text.DRV_I2S_ReadQueuePurge
                0x0000000000000000       0x5c build/pic32mzef_c2_ak4954/production/_ext/450163651/drv_i2s.o
 .text.DRV_I2S_LRCLK_Sync
                0x0000000000000000      0x178 build/pic32mzef_c2_ak4954/production/_ext/450163651/drv_i2s.o
 .scommon       0x0000000000000000        0x4 build/pic32mzef_c2_ak4954/production/_ext/450163651/drv_i2s.o
 .text          0x0000000000000000        0x0 build/pic32mzef_c2_ak4954/production/_ext/563155524/plib_i2s2.o
 .data          0x0000000000000000        0x0 build/pic32mzef_c2_ak4954/production/_ext/563155524/plib_i2s2.o
 .bss           0x0000000000000000        0x0 build/pic32mzef_c2_ak4954/production/_ext/563155524/plib_i2s2.o
 .reginfo       0x0000000000000000       0x18 build/pic32mzef_c2_ak4954/production/_ext/563155524/plib_i2s2.o
 .MIPS.abiflags
                0x0000000000000000       0x18 build/pic32mzef_c2_ak4954/production/_ext/563155524/plib_i2s2.o
 .text          0x0000000000000000        0x0 build/pic32mzef_c2_ak4954/production/_ext/1477346291/bsp.o
 .data          0x0000000000000000        0x0 build/pic32mzef_c2_ak4954/production/_ext/1477346291/bsp.o
 .bss           0x0000000000000000        0x0 build/pic32mzef_c2_ak4954/production/_ext/1477346291/bsp.o
 .reginfo       0x0000000000000000       0x18 build/pic32mzef_c2_ak4954/production/_ext/1477346291/bsp.o
 .MIPS.abiflags
                0x0000000000000000       0x18 build/pic32mzef_c2_ak4954/production/_ext/1477346291/bsp.o
 .text          0x0000000000000000        0x0 build/pic32mzef_c2_ak4954/production/_ext/1337057836/drv_i2c.o
 .data          0x0000000000000000        0x0 build/pic32mzef_c2_ak4954/production/_ext/1337057836/drv_i2c.o
 .reginfo       0x0000000000000000       0x18 build/pic32mzef_c2_ak4954/production/_ext/1337057836/drv_i2c.o
 .MIPS.abiflags
                0x0000000000000000       0x18 build/pic32mzef_c2_ak4954/production/_ext/1337057836/drv_i2c.o
 .text.DRV_I2C_Status
                0x0000000000000000       0x18 build/pic32mzef_c2_ak4954/production/_ext/1337057836/drv_i2c.o
 .text.DRV_I2C_Close
                0x0000000000000000      0x134 build/pic32mzef_c2_ak4954/production/_ext/1337057836/drv_i2c.o
 .text.DRV_I2C_TransferSetup
                0x0000000000000000       0x4c build/pic32mzef_c2_ak4954/production/_ext/1337057836/drv_i2c.o
 .text.DRV_I2C_ErrorGet
                0x0000000000000000       0x98 build/pic32mzef_c2_ak4954/production/_ext/1337057836/drv_i2c.o
 .text.DRV_I2C_ReadTransferAdd
                0x0000000000000000       0x38 build/pic32mzef_c2_ak4954/production/_ext/1337057836/drv_i2c.o
 .text.DRV_I2C_WriteReadTransferAdd
                0x0000000000000000       0x38 build/pic32mzef_c2_ak4954/production/_ext/1337057836/drv_i2c.o
 .text.DRV_I2C_TransferStatusGet
                0x0000000000000000       0x90 build/pic32mzef_c2_ak4954/production/_ext/1337057836/drv_i2c.o
 .text          0x0000000000000000        0x0 build/pic32mzef_c2_ak4954/production/_ext/1500991179/drv_sdspi.o
 .data          0x0000000000000000        0x0 build/pic32mzef_c2_ak4954/production/_ext/1500991179/drv_sdspi.o
 .reginfo       0x0000000000000000       0x18 build/pic32mzef_c2_ak4954/production/_ext/1500991179/drv_sdspi.o
 .MIPS.abiflags
                0x0000000000000000       0x18 build/pic32mzef_c2_ak4954/production/_ext/1500991179/drv_sdspi.o
 .text.DRV_SDSPI_RegisterWithSysFs
                0x0000000000000000        0x8 build/pic32mzef_c2_ak4954/production/_ext/1500991179/drv_sdspi.o
 .text.DRV_SDSPI_Status
                0x0000000000000000       0x18 build/pic32mzef_c2_ak4954/production/_ext/1500991179/drv_sdspi.o
 .text.DRV_SDSPI_IsWriteProtected
                0x0000000000000000       0x80 build/pic32mzef_c2_ak4954/production/_ext/1500991179/drv_sdspi.o
 .text          0x0000000000000000        0x0 build/pic32mzef_c2_ak4954/production/_ext/1500991179/drv_sdspi_plib_interface.o
 .data          0x0000000000000000        0x0 build/pic32mzef_c2_ak4954/production/_ext/1500991179/drv_sdspi_plib_interface.o
 .bss           0x0000000000000000        0x0 build/pic32mzef_c2_ak4954/production/_ext/1500991179/drv_sdspi_plib_interface.o
 .reginfo       0x0000000000000000       0x18 build/pic32mzef_c2_ak4954/production/_ext/1500991179/drv_sdspi_plib_interface.o
 .MIPS.abiflags
                0x0000000000000000       0x18 build/pic32mzef_c2_ak4954/production/_ext/1500991179/drv_sdspi_plib_interface.o
 .text          0x0000000000000000        0x0 build/pic32mzef_c2_ak4954/production/_ext/1500991179/drv_sdspi_file_system.o
 .data          0x0000000000000000        0x0 build/pic32mzef_c2_ak4954/production/_ext/1500991179/drv_sdspi_file_system.o
 .bss           0x0000000000000000        0x0 build/pic32mzef_c2_ak4954/production/_ext/1500991179/drv_sdspi_file_system.o
 .reginfo       0x0000000000000000       0x18 build/pic32mzef_c2_ak4954/production/_ext/1500991179/drv_sdspi_file_system.o
 .MIPS.abiflags
                0x0000000000000000       0x18 build/pic32mzef_c2_ak4954/production/_ext/1500991179/drv_sdspi_file_system.o
 .text          0x0000000000000000        0x0 build/pic32mzef_c2_ak4954/production/_ext/617362437/plib_cache.o
 .data          0x0000000000000000        0x0 build/pic32mzef_c2_ak4954/production/_ext/617362437/plib_cache.o
 .bss           0x0000000000000000        0x0 build/pic32mzef_c2_ak4954/production/_ext/617362437/plib_cache.o
 .reginfo       0x0000000000000000       0x18 build/pic32mzef_c2_ak4954/production/_ext/617362437/plib_cache.o
 .MIPS.abiflags
                0x0000000000000000       0x18 build/pic32mzef_c2_ak4954/production/_ext/617362437/plib_cache.o
 .text.CACHE_CacheInit
                0x0000000000000000       0x24 build/pic32mzef_c2_ak4954/production/_ext/617362437/plib_cache.o
 .text.CACHE_CacheFlush
                0x0000000000000000       0x24 build/pic32mzef_c2_ak4954/production/_ext/617362437/plib_cache.o
 .text.CACHE_DataCacheFlush
                0x0000000000000000       0x24 build/pic32mzef_c2_ak4954/production/_ext/617362437/plib_cache.o
 .text.CACHE_InstructionCacheFlush
                0x0000000000000000       0x24 build/pic32mzef_c2_ak4954/production/_ext/617362437/plib_cache.o
 .text.CACHE_CacheClean
                0x0000000000000000       0x24 build/pic32mzef_c2_ak4954/production/_ext/617362437/plib_cache.o
 .text.CACHE_InstructionCacheInvalidate
                0x0000000000000000       0x24 build/pic32mzef_c2_ak4954/production/_ext/617362437/plib_cache.o
 .text.CACHE_InstructionCacheLock
                0x0000000000000000       0x24 build/pic32mzef_c2_ak4954/production/_ext/617362437/plib_cache.o
 .text.CACHE_DataCacheLock
                0x0000000000000000       0x24 build/pic32mzef_c2_ak4954/production/_ext/617362437/plib_cache.o
 .text.CACHE_CacheSync
                0x0000000000000000       0x24 build/pic32mzef_c2_ak4954/production/_ext/617362437/plib_cache.o
 .text.CACHE_CacheCoherencySet
                0x0000000000000000       0x28 build/pic32mzef_c2_ak4954/production/_ext/617362437/plib_cache.o
 .text.CACHE_DataCacheAssociativityGet
                0x0000000000000000       0x24 build/pic32mzef_c2_ak4954/production/_ext/617362437/plib_cache.o
 .text.CACHE_InstructionCacheAssociativityGet
                0x0000000000000000       0x24 build/pic32mzef_c2_ak4954/production/_ext/617362437/plib_cache.o
 .text.CACHE_DataCacheLineSizeGet
                0x0000000000000000       0x24 build/pic32mzef_c2_ak4954/production/_ext/617362437/plib_cache.o
 .text.CACHE_InstructionCacheLineSizeGet
                0x0000000000000000       0x24 build/pic32mzef_c2_ak4954/production/_ext/617362437/plib_cache.o
 .text.CACHE_DataCacheLinesPerWayGet
                0x0000000000000000       0x24 build/pic32mzef_c2_ak4954/production/_ext/617362437/plib_cache.o
 .text.CACHE_InstructionCacheLinesPerWayGet
                0x0000000000000000       0x24 build/pic32mzef_c2_ak4954/production/_ext/617362437/plib_cache.o
 .text.CACHE_DataCacheSizeGet
                0x0000000000000000       0x24 build/pic32mzef_c2_ak4954/production/_ext/617362437/plib_cache.o
 .text.CACHE_InstructionCacheSizeGet
                0x0000000000000000       0x24 build/pic32mzef_c2_ak4954/production/_ext/617362437/plib_cache.o
 .data          0x0000000000000000        0x0 build/pic32mzef_c2_ak4954/production/_ext/617362437/plib_cache_pic32mz.o
 .bss           0x0000000000000000        0x0 build/pic32mzef_c2_ak4954/production/_ext/617362437/plib_cache_pic32mz.o
 .reginfo       0x0000000000000000       0x18 build/pic32mzef_c2_ak4954/production/_ext/617362437/plib_cache_pic32mz.o
 .MIPS.abiflags
                0x0000000000000000       0x18 build/pic32mzef_c2_ak4954/production/_ext/617362437/plib_cache_pic32mz.o
 .text          0x0000000000000000        0x0 build/pic32mzef_c2_ak4954/production/_ext/1435277349/plib_clk.o
 .data          0x0000000000000000        0x0 build/pic32mzef_c2_ak4954/production/_ext/1435277349/plib_clk.o
 .bss           0x0000000000000000        0x0 build/pic32mzef_c2_ak4954/production/_ext/1435277349/plib_clk.o
 .reginfo       0x0000000000000000       0x18 build/pic32mzef_c2_ak4954/production/_ext/1435277349/plib_clk.o
 .MIPS.abiflags
                0x0000000000000000       0x18 build/pic32mzef_c2_ak4954/production/_ext/1435277349/plib_clk.o
 .text          0x0000000000000000        0x0 build/pic32mzef_c2_ak4954/production/_ext/131824383/plib_coretimer.o
 .data          0x0000000000000000        0x0 build/pic32mzef_c2_ak4954/production/_ext/131824383/plib_coretimer.o
 .bss           0x0000000000000000        0x0 build/pic32mzef_c2_ak4954/production/_ext/131824383/plib_coretimer.o
 .reginfo       0x0000000000000000       0x18 build/pic32mzef_c2_ak4954/production/_ext/131824383/plib_coretimer.o
 .MIPS.abiflags
                0x0000000000000000       0x18 build/pic32mzef_c2_ak4954/production/_ext/131824383/plib_coretimer.o
 .text.CORETIMER_DelayMs
                0x0000000000000000       0x4c build/pic32mzef_c2_ak4954/production/_ext/131824383/plib_coretimer.o
 .text.CORETIMER_DelayUs
                0x0000000000000000       0x38 build/pic32mzef_c2_ak4954/production/_ext/131824383/plib_coretimer.o
 .text          0x0000000000000000        0x0 build/pic32mzef_c2_ak4954/production/_ext/1543894318/plib_dmac.o
 .data          0x0000000000000000        0x0 build/pic32mzef_c2_ak4954/production/_ext/1543894318/plib_dmac.o
 .reginfo       0x0000000000000000       0x18 build/pic32mzef_c2_ak4954/production/_ext/1543894318/plib_dmac.o
 .MIPS.abiflags
                0x0000000000000000       0x18 build/pic32mzef_c2_ak4954/production/_ext/1543894318/plib_dmac.o
 .text.DMAC_ChainTransferSetup
                0x0000000000000000       0xcc build/pic32mzef_c2_ak4954/production/_ext/1543894318/plib_dmac.o
 .text.DMAC_ChannelPatternMatchSetup
                0x0000000000000000       0x48 build/pic32mzef_c2_ak4954/production/_ext/1543894318/plib_dmac.o
 .text.DMAC_ChannelPatternMatchDisable
                0x0000000000000000       0x28 build/pic32mzef_c2_ak4954/production/_ext/1543894318/plib_dmac.o
 .text.DMAC_ChannelDisable
                0x0000000000000000       0x44 build/pic32mzef_c2_ak4954/production/_ext/1543894318/plib_dmac.o
 .text.DMAC_ChannelIsBusy
                0x0000000000000000       0x3c build/pic32mzef_c2_ak4954/production/_ext/1543894318/plib_dmac.o
 .text.DMAC_ChannelTransferStatusGet
                0x0000000000000000       0x40 build/pic32mzef_c2_ak4954/production/_ext/1543894318/plib_dmac.o
 .text.DMAC_ChannelCRCSetup
                0x0000000000000000       0x8c build/pic32mzef_c2_ak4954/production/_ext/1543894318/plib_dmac.o
 .text.DMAC_CRCDisable
                0x0000000000000000       0x14 build/pic32mzef_c2_ak4954/production/_ext/1543894318/plib_dmac.o
 .text.DMAC_CRCRead
                0x0000000000000000       0x58 build/pic32mzef_c2_ak4954/production/_ext/1543894318/plib_dmac.o
 .text          0x0000000000000000        0x0 build/pic32mzef_c2_ak4954/production/_ext/1543855630/plib_evic.o
 .data          0x0000000000000000        0x0 build/pic32mzef_c2_ak4954/production/_ext/1543855630/plib_evic.o
 .bss           0x0000000000000000        0x0 build/pic32mzef_c2_ak4954/production/_ext/1543855630/plib_evic.o
 .reginfo       0x0000000000000000       0x18 build/pic32mzef_c2_ak4954/production/_ext/1543855630/plib_evic.o
 .MIPS.abiflags
                0x0000000000000000       0x18 build/pic32mzef_c2_ak4954/production/_ext/1543855630/plib_evic.o
 .text.EVIC_SourceStatusGet
                0x0000000000000000       0x20 build/pic32mzef_c2_ak4954/production/_ext/1543855630/plib_evic.o
 .text.EVIC_SourceStatusSet
                0x0000000000000000       0x28 build/pic32mzef_c2_ak4954/production/_ext/1543855630/plib_evic.o
 .text.EVIC_SourceStatusClear
                0x0000000000000000       0x28 build/pic32mzef_c2_ak4954/production/_ext/1543855630/plib_evic.o
 .text.EVIC_INT_Enable
                0x0000000000000000       0x18 build/pic32mzef_c2_ak4954/production/_ext/1543855630/plib_evic.o
 .text          0x0000000000000000        0x0 build/pic32mzef_c2_ak4954/production/_ext/1543801802/plib_gpio.o
 .data          0x0000000000000000        0x0 build/pic32mzef_c2_ak4954/production/_ext/1543801802/plib_gpio.o
 .bss           0x0000000000000000        0x0 build/pic32mzef_c2_ak4954/production/_ext/1543801802/plib_gpio.o
 .reginfo       0x0000000000000000       0x18 build/pic32mzef_c2_ak4954/production/_ext/1543801802/plib_gpio.o
 .MIPS.abiflags
                0x0000000000000000       0x18 build/pic32mzef_c2_ak4954/production/_ext/1543801802/plib_gpio.o
 .text.GPIO_PortRead
                0x0000000000000000       0x18 build/pic32mzef_c2_ak4954/production/_ext/1543801802/plib_gpio.o
 .text.GPIO_PortWrite
                0x0000000000000000       0x2c build/pic32mzef_c2_ak4954/production/_ext/1543801802/plib_gpio.o
 .text.GPIO_PortLatchRead
                0x0000000000000000       0x18 build/pic32mzef_c2_ak4954/production/_ext/1543801802/plib_gpio.o
 .text.GPIO_PortToggle
                0x0000000000000000       0x1c build/pic32mzef_c2_ak4954/production/_ext/1543801802/plib_gpio.o
 .text.GPIO_PortInputEnable
                0x0000000000000000       0x1c build/pic32mzef_c2_ak4954/production/_ext/1543801802/plib_gpio.o
 .text.GPIO_PortOutputEnable
                0x0000000000000000       0x1c build/pic32mzef_c2_ak4954/production/_ext/1543801802/plib_gpio.o
 .text          0x0000000000000000        0x0 build/pic32mzef_c2_ak4954/production/_ext/232538270/plib_i2c1_master.o
 .data          0x0000000000000000        0x0 build/pic32mzef_c2_ak4954/production/_ext/232538270/plib_i2c1_master.o
 .reginfo       0x0000000000000000       0x18 build/pic32mzef_c2_ak4954/production/_ext/232538270/plib_i2c1_master.o
 .MIPS.abiflags
                0x0000000000000000       0x18 build/pic32mzef_c2_ak4954/production/_ext/232538270/plib_i2c1_master.o
 .text.I2C1_IsBusy
                0x0000000000000000       0x50 build/pic32mzef_c2_ak4954/production/_ext/232538270/plib_i2c1_master.o
 .text          0x0000000000000000        0x0 build/pic32mzef_c2_ak4954/production/_ext/603446335/plib_spi1_master.o
 .data          0x0000000000000000        0x0 build/pic32mzef_c2_ak4954/production/_ext/603446335/plib_spi1_master.o
 .bss           0x0000000000000000        0x0 build/pic32mzef_c2_ak4954/production/_ext/603446335/plib_spi1_master.o
 .reginfo       0x0000000000000000       0x18 build/pic32mzef_c2_ak4954/production/_ext/603446335/plib_spi1_master.o
 .MIPS.abiflags
                0x0000000000000000       0x18 build/pic32mzef_c2_ak4954/production/_ext/603446335/plib_spi1_master.o
 .text.SPI1_IsBusy
                0x0000000000000000       0x28 build/pic32mzef_c2_ak4954/production/_ext/603446335/plib_spi1_master.o
 .text          0x0000000000000000        0x0 build/pic32mzef_c2_ak4954/production/_ext/1543398859/plib_uart6.o
 .data          0x0000000000000000        0x0 build/pic32mzef_c2_ak4954/production/_ext/1543398859/plib_uart6.o
 .bss           0x0000000000000000        0x0 build/pic32mzef_c2_ak4954/production/_ext/1543398859/plib_uart6.o
 .reginfo       0x0000000000000000       0x18 build/pic32mzef_c2_ak4954/production/_ext/1543398859/plib_uart6.o
 .MIPS.abiflags
                0x0000000000000000       0x18 build/pic32mzef_c2_ak4954/production/_ext/1543398859/plib_uart6.o
 .text.UART6_ErrorClear
                0x0000000000000000       0x60 build/pic32mzef_c2_ak4954/production/_ext/1543398859/plib_uart6.o
 .text.UART6_SerialSetup
                0x0000000000000000      0x144 build/pic32mzef_c2_ak4954/production/_ext/1543398859/plib_uart6.o
 .text.UART6_AutoBaudQuery
                0x0000000000000000       0x10 build/pic32mzef_c2_ak4954/production/_ext/1543398859/plib_uart6.o
 .text.UART6_AutoBaudSet
                0x0000000000000000       0x18 build/pic32mzef_c2_ak4954/production/_ext/1543398859/plib_uart6.o
 .text.UART6_Read
                0x0000000000000000       0xbc build/pic32mzef_c2_ak4954/production/_ext/1543398859/plib_uart6.o
 .text.UART6_ErrorGet
                0x0000000000000000       0x3c build/pic32mzef_c2_ak4954/production/_ext/1543398859/plib_uart6.o
 .text.UART6_WriteByte
                0x0000000000000000       0x20 build/pic32mzef_c2_ak4954/production/_ext/1543398859/plib_uart6.o
 .text.UART6_TransmitterIsReady
                0x0000000000000000       0x14 build/pic32mzef_c2_ak4954/production/_ext/1543398859/plib_uart6.o
 .text.UART6_ReadByte
                0x0000000000000000       0x10 build/pic32mzef_c2_ak4954/production/_ext/1543398859/plib_uart6.o
 .text.UART6_ReceiverIsReady
                0x0000000000000000       0x10 build/pic32mzef_c2_ak4954/production/_ext/1543398859/plib_uart6.o
 .text.UART6_TransmitComplete
                0x0000000000000000       0x10 build/pic32mzef_c2_ak4954/production/_ext/1543398859/plib_uart6.o
 .text          0x0000000000000000        0x0 build/pic32mzef_c2_ak4954/production/_ext/1888667843/xc32_monitor.o
 .data          0x0000000000000000        0x0 build/pic32mzef_c2_ak4954/production/_ext/1888667843/xc32_monitor.o
 .bss           0x0000000000000000        0x0 build/pic32mzef_c2_ak4954/production/_ext/1888667843/xc32_monitor.o
 .reginfo       0x0000000000000000       0x18 build/pic32mzef_c2_ak4954/production/_ext/1888667843/xc32_monitor.o
 .MIPS.abiflags
                0x0000000000000000       0x18 build/pic32mzef_c2_ak4954/production/_ext/1888667843/xc32_monitor.o
 .text._mon_getc
                0x0000000000000000        0x8 build/pic32mzef_c2_ak4954/production/_ext/1888667843/xc32_monitor.o
 .text          0x0000000000000000        0x0 build/pic32mzef_c2_ak4954/production/_ext/839150702/sys_cache.o
 .data          0x0000000000000000        0x0 build/pic32mzef_c2_ak4954/production/_ext/839150702/sys_cache.o
 .bss           0x0000000000000000        0x0 build/pic32mzef_c2_ak4954/production/_ext/839150702/sys_cache.o
 .reginfo       0x0000000000000000       0x18 build/pic32mzef_c2_ak4954/production/_ext/839150702/sys_cache.o
 .MIPS.abiflags
                0x0000000000000000       0x18 build/pic32mzef_c2_ak4954/production/_ext/839150702/sys_cache.o
 .text.SYS_CACHE_EnableCaches
                0x0000000000000000       0x1c build/pic32mzef_c2_ak4954/production/_ext/839150702/sys_cache.o
 .text.SYS_CACHE_DisableCaches
                0x0000000000000000       0x1c build/pic32mzef_c2_ak4954/production/_ext/839150702/sys_cache.o
 .text.SYS_CACHE_EnableICache
                0x0000000000000000       0x1c build/pic32mzef_c2_ak4954/production/_ext/839150702/sys_cache.o
 .text.SYS_CACHE_DisableICache
                0x0000000000000000       0x1c build/pic32mzef_c2_ak4954/production/_ext/839150702/sys_cache.o
 .text.SYS_CACHE_EnableDCache
                0x0000000000000000       0x1c build/pic32mzef_c2_ak4954/production/_ext/839150702/sys_cache.o
 .text.SYS_CACHE_DisableDCache
                0x0000000000000000       0x1c build/pic32mzef_c2_ak4954/production/_ext/839150702/sys_cache.o
 .text.SYS_CACHE_CleanDCache
                0x0000000000000000       0x1c build/pic32mzef_c2_ak4954/production/_ext/839150702/sys_cache.o
 .text.SYS_CACHE_CleanInvalidateDCache
                0x0000000000000000       0x30 build/pic32mzef_c2_ak4954/production/_ext/839150702/sys_cache.o
 .text.SYS_CACHE_InvalidateICache
                0x0000000000000000       0x30 build/pic32mzef_c2_ak4954/production/_ext/839150702/sys_cache.o
 .text.SYS_CACHE_InvalidateDCache
                0x0000000000000000       0x30 build/pic32mzef_c2_ak4954/production/_ext/839150702/sys_cache.o
 .text.SYS_CACHE_CleanInvalidateDCache_by_Addr
                0x0000000000000000       0x44 build/pic32mzef_c2_ak4954/production/_ext/839150702/sys_cache.o
 .text          0x0000000000000000        0x0 build/pic32mzef_c2_ak4954/production/_ext/2050519836/sys_dma.o
 .data          0x0000000000000000        0x0 build/pic32mzef_c2_ak4954/production/_ext/2050519836/sys_dma.o
 .reginfo       0x0000000000000000       0x18 build/pic32mzef_c2_ak4954/production/_ext/2050519836/sys_dma.o
 .MIPS.abiflags
                0x0000000000000000       0x18 build/pic32mzef_c2_ak4954/production/_ext/2050519836/sys_dma.o
 .text          0x0000000000000000        0x0 build/pic32mzef_c2_ak4954/production/_ext/1867241316/ff.o
 .data          0x0000000000000000        0x0 build/pic32mzef_c2_ak4954/production/_ext/1867241316/ff.o
 .reginfo       0x0000000000000000       0x18 build/pic32mzef_c2_ak4954/production/_ext/1867241316/ff.o
 .MIPS.abiflags
                0x0000000000000000       0x18 build/pic32mzef_c2_ak4954/production/_ext/1867241316/ff.o
 .text          0x0000000000000000        0x0 build/pic32mzef_c2_ak4954/production/_ext/1867241316/ffunicode.o
 .data          0x0000000000000000        0x0 build/pic32mzef_c2_ak4954/production/_ext/1867241316/ffunicode.o
 .bss           0x0000000000000000        0x0 build/pic32mzef_c2_ak4954/production/_ext/1867241316/ffunicode.o
 .reginfo       0x0000000000000000       0x18 build/pic32mzef_c2_ak4954/production/_ext/1867241316/ffunicode.o
 .MIPS.abiflags
                0x0000000000000000       0x18 build/pic32mzef_c2_ak4954/production/_ext/1867241316/ffunicode.o
 .text          0x0000000000000000        0x0 build/pic32mzef_c2_ak4954/production/_ext/1892335699/diskio.o
 .data          0x0000000000000000        0x0 build/pic32mzef_c2_ak4954/production/_ext/1892335699/diskio.o
 .bss           0x0000000000000000        0x0 build/pic32mzef_c2_ak4954/production/_ext/1892335699/diskio.o
 .reginfo       0x0000000000000000       0x18 build/pic32mzef_c2_ak4954/production/_ext/1892335699/diskio.o
 .MIPS.abiflags
                0x0000000000000000       0x18 build/pic32mzef_c2_ak4954/production/_ext/1892335699/diskio.o
 .text          0x0000000000000000        0x0 build/pic32mzef_c2_ak4954/production/_ext/344840758/sys_fs.o
 .data          0x0000000000000000        0x0 build/pic32mzef_c2_ak4954/production/_ext/344840758/sys_fs.o
 .bss           0x0000000000000000        0x0 build/pic32mzef_c2_ak4954/production/_ext/344840758/sys_fs.o
 .reginfo       0x0000000000000000       0x18 build/pic32mzef_c2_ak4954/production/_ext/344840758/sys_fs.o
 .MIPS.abiflags
                0x0000000000000000       0x18 build/pic32mzef_c2_ak4954/production/_ext/344840758/sys_fs.o
 .text.SYS_FS_FileError
                0x0000000000000000       0x20 build/pic32mzef_c2_ak4954/production/_ext/344840758/sys_fs.o
 .text.SYS_FS_DirRewind
                0x0000000000000000       0xc4 build/pic32mzef_c2_ak4954/production/_ext/344840758/sys_fs.o
 .text.SYS_FS_DirSearch
                0x0000000000000000      0x250 build/pic32mzef_c2_ak4954/production/_ext/344840758/sys_fs.o
 .text.SYS_FS_FileStringGet
                0x0000000000000000       0xdc build/pic32mzef_c2_ak4954/production/_ext/344840758/sys_fs.o
 .text.SYS_FS_DirectoryChange
                0x0000000000000000       0xcc build/pic32mzef_c2_ak4954/production/_ext/344840758/sys_fs.o
 .text.SYS_FS_CurrentWorkingDirectoryGet
                0x0000000000000000      0x1c0 build/pic32mzef_c2_ak4954/production/_ext/344840758/sys_fs.o
 .text.SYS_FS_CurrentDriveGet
                0x0000000000000000       0x7c build/pic32mzef_c2_ak4954/production/_ext/344840758/sys_fs.o
 .text.SYS_FS_DriveLabelGet
                0x0000000000000000       0xf8 build/pic32mzef_c2_ak4954/production/_ext/344840758/sys_fs.o
 .text.SYS_FS_FileWrite
                0x0000000000000000       0xcc build/pic32mzef_c2_ak4954/production/_ext/344840758/sys_fs.o
 .text.SYS_FS_FileSync
                0x0000000000000000       0xc0 build/pic32mzef_c2_ak4954/production/_ext/344840758/sys_fs.o
 .text.SYS_FS_FileTruncate
                0x0000000000000000       0xb0 build/pic32mzef_c2_ak4954/production/_ext/344840758/sys_fs.o
 .text.SYS_FS_FileCharacterPut
                0x0000000000000000       0xd0 build/pic32mzef_c2_ak4954/production/_ext/344840758/sys_fs.o
 .text.SYS_FS_FileStringPut
                0x0000000000000000       0xc8 build/pic32mzef_c2_ak4954/production/_ext/344840758/sys_fs.o
 .text.SYS_FS_FilePrintf
                0x0000000000000000       0xe4 build/pic32mzef_c2_ak4954/production/_ext/344840758/sys_fs.o
 .text.SYS_FS_FileTestError
                0x0000000000000000       0xb0 build/pic32mzef_c2_ak4954/production/_ext/344840758/sys_fs.o
 .text.SYS_FS_DirectoryMake
                0x0000000000000000       0xcc build/pic32mzef_c2_ak4954/production/_ext/344840758/sys_fs.o
 .text.SYS_FS_FileDirectoryRemove
                0x0000000000000000       0xcc build/pic32mzef_c2_ak4954/production/_ext/344840758/sys_fs.o
 .text.SYS_FS_FileDirectoryModeSet
                0x0000000000000000       0xec build/pic32mzef_c2_ak4954/production/_ext/344840758/sys_fs.o
 .text.SYS_FS_FileDirectoryTimeSet
                0x0000000000000000       0xf0 build/pic32mzef_c2_ak4954/production/_ext/344840758/sys_fs.o
 .text.SYS_FS_FileDirectoryRenameMove
                0x0000000000000000      0x104 build/pic32mzef_c2_ak4954/production/_ext/344840758/sys_fs.o
 .text.SYS_FS_DriveLabelSet
                0x0000000000000000      0x114 build/pic32mzef_c2_ak4954/production/_ext/344840758/sys_fs.o
 .text.SYS_FS_DriveFormat
                0x0000000000000000       0xcc build/pic32mzef_c2_ak4954/production/_ext/344840758/sys_fs.o
 .text.SYS_FS_DrivePartition
                0x0000000000000000       0xc0 build/pic32mzef_c2_ak4954/production/_ext/344840758/sys_fs.o
 .text.SYS_FS_DriveSectorGet
                0x0000000000000000      0x108 build/pic32mzef_c2_ak4954/production/_ext/344840758/sys_fs.o
 .text          0x0000000000000000        0x0 build/pic32mzef_c2_ak4954/production/_ext/344840758/sys_fs_media_manager.o
 .bss           0x0000000000000000        0x0 build/pic32mzef_c2_ak4954/production/_ext/344840758/sys_fs_media_manager.o
 .reginfo       0x0000000000000000       0x18 build/pic32mzef_c2_ak4954/production/_ext/344840758/sys_fs_media_manager.o
 .MIPS.abiflags
                0x0000000000000000       0x18 build/pic32mzef_c2_ak4954/production/_ext/344840758/sys_fs_media_manager.o
 .text.SYS_FS_MEDIA_MANAGER_DeRegister
                0x0000000000000000       0x18 build/pic32mzef_c2_ak4954/production/_ext/344840758/sys_fs_media_manager.o
 .text.SYS_FS_MEDIA_MANAGER_Read
                0x0000000000000000       0xc4 build/pic32mzef_c2_ak4954/production/_ext/344840758/sys_fs_media_manager.o
 .text.SYS_FS_MEDIA_MANAGER_AddressGet
                0x0000000000000000       0x3c build/pic32mzef_c2_ak4954/production/_ext/344840758/sys_fs_media_manager.o
 .text.SYS_FS_MEDIA_MANAGER_CommandStatusGet
                0x0000000000000000       0x4c build/pic32mzef_c2_ak4954/production/_ext/344840758/sys_fs_media_manager.o
 .text          0x0000000000000000        0x0 build/pic32mzef_c2_ak4954/production/_ext/344840758/sys_fs_fat_interface.o
 .data          0x0000000000000000        0x0 build/pic32mzef_c2_ak4954/production/_ext/344840758/sys_fs_fat_interface.o
 .bss           0x0000000000000000        0x0 build/pic32mzef_c2_ak4954/production/_ext/344840758/sys_fs_fat_interface.o
 .reginfo       0x0000000000000000       0x18 build/pic32mzef_c2_ak4954/production/_ext/344840758/sys_fs_fat_interface.o
 .MIPS.abiflags
                0x0000000000000000       0x18 build/pic32mzef_c2_ak4954/production/_ext/344840758/sys_fs_fat_interface.o
 .text.FATFS_getfree
                0x0000000000000000       0x1c build/pic32mzef_c2_ak4954/production/_ext/344840758/sys_fs_fat_interface.o
 .text          0x0000000000000000        0x0 build/pic32mzef_c2_ak4954/production/_ext/386225584/sys_int.o
 .data          0x0000000000000000        0x0 build/pic32mzef_c2_ak4954/production/_ext/386225584/sys_int.o
 .bss           0x0000000000000000        0x0 build/pic32mzef_c2_ak4954/production/_ext/386225584/sys_int.o
 .reginfo       0x0000000000000000       0x18 build/pic32mzef_c2_ak4954/production/_ext/386225584/sys_int.o
 .MIPS.abiflags
                0x0000000000000000       0x18 build/pic32mzef_c2_ak4954/production/_ext/386225584/sys_int.o
 .text.SYS_INT_Enable
                0x0000000000000000       0x1c build/pic32mzef_c2_ak4954/production/_ext/386225584/sys_int.o
 .text          0x0000000000000000        0x0 build/pic32mzef_c2_ak4954/production/_ext/784026422/sys_time.o
 .data          0x0000000000000000        0x0 build/pic32mzef_c2_ak4954/production/_ext/784026422/sys_time.o
 .reginfo       0x0000000000000000       0x18 build/pic32mzef_c2_ak4954/production/_ext/784026422/sys_time.o
 .MIPS.abiflags
                0x0000000000000000       0x18 build/pic32mzef_c2_ak4954/production/_ext/784026422/sys_time.o
 .text.SYS_TIME_Deinitialize
                0x0000000000000000       0x9c build/pic32mzef_c2_ak4954/production/_ext/784026422/sys_time.o
 .text.SYS_TIME_Status
                0x0000000000000000       0x20 build/pic32mzef_c2_ak4954/production/_ext/784026422/sys_time.o
 .text.SYS_TIME_FrequencyGet
                0x0000000000000000        0xc build/pic32mzef_c2_ak4954/production/_ext/784026422/sys_time.o
 .text.SYS_TIME_Counter64Get
                0x0000000000000000       0x74 build/pic32mzef_c2_ak4954/production/_ext/784026422/sys_time.o
 .text.SYS_TIME_CounterGet
                0x0000000000000000       0x1c build/pic32mzef_c2_ak4954/production/_ext/784026422/sys_time.o
 .text.SYS_TIME_CounterSet
                0x0000000000000000       0x40 build/pic32mzef_c2_ak4954/production/_ext/784026422/sys_time.o
 .text.SYS_TIME_CountToUS
                0x0000000000000000       0x84 build/pic32mzef_c2_ak4954/production/_ext/784026422/sys_time.o
 .text.SYS_TIME_CountToMS
                0x0000000000000000       0x64 build/pic32mzef_c2_ak4954/production/_ext/784026422/sys_time.o
 .text.SYS_TIME_USToCount
                0x0000000000000000       0x38 build/pic32mzef_c2_ak4954/production/_ext/784026422/sys_time.o
 .text.SYS_TIME_MSToCount
                0x0000000000000000       0x34 build/pic32mzef_c2_ak4954/production/_ext/784026422/sys_time.o
 .text.SYS_TIME_TimerCreate
                0x0000000000000000       0x30 build/pic32mzef_c2_ak4954/production/_ext/784026422/sys_time.o
 .text.SYS_TIME_TimerReload
                0x0000000000000000      0x118 build/pic32mzef_c2_ak4954/production/_ext/784026422/sys_time.o
 .text.SYS_TIME_TimerStop
                0x0000000000000000       0x78 build/pic32mzef_c2_ak4954/production/_ext/784026422/sys_time.o
 .text.SYS_TIME_TimerCounterGet
                0x0000000000000000       0xf4 build/pic32mzef_c2_ak4954/production/_ext/784026422/sys_time.o
 .text.SYS_TIME_TimerPeriodHasExpired
                0x0000000000000000       0x5c build/pic32mzef_c2_ak4954/production/_ext/784026422/sys_time.o
 .text.SYS_TIME_DelayUS
                0x0000000000000000       0x94 build/pic32mzef_c2_ak4954/production/_ext/784026422/sys_time.o
 .text.SYS_TIME_DelayMS
                0x0000000000000000       0x90 build/pic32mzef_c2_ak4954/production/_ext/784026422/sys_time.o
 .text.SYS_TIME_DelayIsComplete
                0x0000000000000000       0x40 build/pic32mzef_c2_ak4954/production/_ext/784026422/sys_time.o
 .text.SYS_TIME_CallbackRegisterUS
                0x0000000000000000       0xa8 build/pic32mzef_c2_ak4954/production/_ext/784026422/sys_time.o
 .text          0x0000000000000000        0x0 build/pic32mzef_c2_ak4954/production/_ext/79412797/initialization.o
 .reginfo       0x0000000000000000       0x18 build/pic32mzef_c2_ak4954/production/_ext/79412797/initialization.o
 .MIPS.abiflags
                0x0000000000000000       0x18 build/pic32mzef_c2_ak4954/production/_ext/79412797/initialization.o
 .text          0x0000000000000000        0x0 build/pic32mzef_c2_ak4954/production/_ext/79412797/interrupts.o
 .data          0x0000000000000000        0x0 build/pic32mzef_c2_ak4954/production/_ext/79412797/interrupts.o
 .bss           0x0000000000000000        0x0 build/pic32mzef_c2_ak4954/production/_ext/79412797/interrupts.o
 .reginfo       0x0000000000000000       0x18 build/pic32mzef_c2_ak4954/production/_ext/79412797/interrupts.o
 .MIPS.abiflags
                0x0000000000000000       0x18 build/pic32mzef_c2_ak4954/production/_ext/79412797/interrupts.o
 .text          0x0000000000000000        0x0 build/pic32mzef_c2_ak4954/production/_ext/79412797/exceptions.o
 .data          0x0000000000000000        0x0 build/pic32mzef_c2_ak4954/production/_ext/79412797/exceptions.o
 .bss           0x0000000000000000        0x0 build/pic32mzef_c2_ak4954/production/_ext/79412797/exceptions.o
 .reginfo       0x0000000000000000       0x18 build/pic32mzef_c2_ak4954/production/_ext/79412797/exceptions.o
 .MIPS.abiflags
                0x0000000000000000       0x18 build/pic32mzef_c2_ak4954/production/_ext/79412797/exceptions.o
 .text          0x0000000000000000        0x0 build/pic32mzef_c2_ak4954/production/_ext/79412797/tasks.o
 .data          0x0000000000000000        0x0 build/pic32mzef_c2_ak4954/production/_ext/79412797/tasks.o
 .bss           0x0000000000000000        0x0 build/pic32mzef_c2_ak4954/production/_ext/79412797/tasks.o
 .reginfo       0x0000000000000000       0x18 build/pic32mzef_c2_ak4954/production/_ext/79412797/tasks.o
 .MIPS.abiflags
                0x0000000000000000       0x18 build/pic32mzef_c2_ak4954/production/_ext/79412797/tasks.o
 .text          0x0000000000000000        0x0 build/pic32mzef_c2_ak4954/production/_ext/1360937237/app_sdcard_audio_task.o
 .data          0x0000000000000000        0x0 build/pic32mzef_c2_ak4954/production/_ext/1360937237/app_sdcard_audio_task.o
 .reginfo       0x0000000000000000       0x18 build/pic32mzef_c2_ak4954/production/_ext/1360937237/app_sdcard_audio_task.o
 .MIPS.abiflags
                0x0000000000000000       0x18 build/pic32mzef_c2_ak4954/production/_ext/1360937237/app_sdcard_audio_task.o
 .text.APP_SDCARD_AUDIO_GetNextIdxInOutputBuffer
                0x0000000000000000        0xc build/pic32mzef_c2_ak4954/production/_ext/1360937237/app_sdcard_audio_task.o
 .text.APP_SDCARD_AUDIO_Card_GetCurrentFilePosition
                0x0000000000000000       0x20 build/pic32mzef_c2_ak4954/production/_ext/1360937237/app_sdcard_audio_task.o
 .text.APP_SDCARD_AUDIO_Card_GetFilePosition
                0x0000000000000000       0x1c build/pic32mzef_c2_ak4954/production/_ext/1360937237/app_sdcard_audio_task.o
 .text.APP_SDCARD_AUDIO_SuspendStreaming
                0x0000000000000000       0x48 build/pic32mzef_c2_ak4954/production/_ext/1360937237/app_sdcard_audio_task.o
 .text.APP_SDCARD_AUDIO_Card_EventHandler
                0x0000000000000000       0xd4 build/pic32mzef_c2_ak4954/production/_ext/1360937237/app_sdcard_audio_task.o
 .text.APP_SDCARD_AUDIO_GetFileTablePointer
                0x0000000000000000        0xc build/pic32mzef_c2_ak4954/production/_ext/1360937237/app_sdcard_audio_task.o
 .text.APP_SDCARD_AUDIO_RandomTrackSet
                0x0000000000000000       0x38 build/pic32mzef_c2_ak4954/production/_ext/1360937237/app_sdcard_audio_task.o
 .text.APP_SDCARD_AUDIO_isSonglistAvailable
                0x0000000000000000        0xc build/pic32mzef_c2_ak4954/production/_ext/1360937237/app_sdcard_audio_task.o
 .text.APP_SDCARD_AUDIO_MuteOn
                0x0000000000000000       0x20 build/pic32mzef_c2_ak4954/production/_ext/1360937237/app_sdcard_audio_task.o
 .text.APP_SDCARD_AUDIO_MuteOff
                0x0000000000000000       0x20 build/pic32mzef_c2_ak4954/production/_ext/1360937237/app_sdcard_audio_task.o
 .text.APP_SDCARD_AUDIO_VolumeGet
                0x0000000000000000       0x24 build/pic32mzef_c2_ak4954/production/_ext/1360937237/app_sdcard_audio_task.o
 .text.APP_SDCARD_AUDIO_VolumeSet
                0x0000000000000000       0x28 build/pic32mzef_c2_ak4954/production/_ext/1360937237/app_sdcard_audio_task.o
 .text.APP_SDCARD_AUDIO_FileCountGet
                0x0000000000000000        0xc build/pic32mzef_c2_ak4954/production/_ext/1360937237/app_sdcard_audio_task.o
 .text.APP_SDCARD_AUDIO_CurrentTrackIdGet
                0x0000000000000000        0xc build/pic32mzef_c2_ak4954/production/_ext/1360937237/app_sdcard_audio_task.o
 .text          0x0000000000000000        0x0 build/pic32mzef_c2_ak4954/production/_ext/1360937237/decoder.o
 .data          0x0000000000000000        0x0 build/pic32mzef_c2_ak4954/production/_ext/1360937237/decoder.o
 .bss           0x0000000000000000        0x0 build/pic32mzef_c2_ak4954/production/_ext/1360937237/decoder.o
 .reginfo       0x0000000000000000       0x18 build/pic32mzef_c2_ak4954/production/_ext/1360937237/decoder.o
 .MIPS.abiflags
                0x0000000000000000       0x18 build/pic32mzef_c2_ak4954/production/_ext/1360937237/decoder.o
 .text.DECODER_GetCurrentValidAudioSize
                0x0000000000000000       0x2c build/pic32mzef_c2_ak4954/production/_ext/1360937237/decoder.o
 .text.GetDecodeBitRate
                0x0000000000000000        0x8 build/pic32mzef_c2_ak4954/production/_ext/1360937237/decoder.o
 .text.GetDecodeSamplingRate
                0x0000000000000000        0x8 build/pic32mzef_c2_ak4954/production/_ext/1360937237/decoder.o
 .scommon       0x0000000000000000        0xc build/pic32mzef_c2_ak4954/production/_ext/1360937237/decoder.o
 .text          0x0000000000000000        0x0 build/pic32mzef_c2_ak4954/production/_ext/1360937237/main.o
 .bss           0x0000000000000000        0x0 build/pic32mzef_c2_ak4954/production/_ext/1360937237/main.o
 .reginfo       0x0000000000000000       0x18 build/pic32mzef_c2_ak4954/production/_ext/1360937237/main.o
 .MIPS.abiflags
                0x0000000000000000       0x18 build/pic32mzef_c2_ak4954/production/_ext/1360937237/main.o
 .text          0x0000000000000000        0x0 build/pic32mzef_c2_ak4954/production/_ext/1360937237/app.o
 .data          0x0000000000000000        0x0 build/pic32mzef_c2_ak4954/production/_ext/1360937237/app.o
 .bss           0x0000000000000000        0x0 build/pic32mzef_c2_ak4954/production/_ext/1360937237/app.o
 .reginfo       0x0000000000000000       0x18 build/pic32mzef_c2_ak4954/production/_ext/1360937237/app.o
 .MIPS.abiflags
                0x0000000000000000       0x18 build/pic32mzef_c2_ak4954/production/_ext/1360937237/app.o
 .text.APP_StreamSourceSet
                0x0000000000000000        0xc build/pic32mzef_c2_ak4954/production/_ext/1360937237/app.o
 .text          0x0000000000000000        0x0 C:\Users\spreg\AppData\Local\Temp\ccUeMUPf.o
 .data          0x0000000000000000        0x0 C:\Users\spreg\AppData\Local\Temp\ccUeMUPf.o
 .bss           0x0000000000000000        0x0 C:\Users\spreg\AppData\Local\Temp\ccUeMUPf.o
 .reginfo       0x0000000000000000       0x18 C:\Users\spreg\AppData\Local\Temp\ccUeMUPf.o
 .MIPS.abiflags
                0x0000000000000000       0x18 C:\Users\spreg\AppData\Local\Temp\ccUeMUPf.o
 .text          0x0000000000000000        0x0 C:\Users\spreg\AppData\Local\Temp\ccWZxsOs.o
 .data          0x0000000000000000        0x0 C:\Users\spreg\AppData\Local\Temp\ccWZxsOs.o
 .bss           0x0000000000000000        0x0 C:\Users\spreg\AppData\Local\Temp\ccWZxsOs.o
 .reginfo       0x0000000000000000       0x18 C:\Users\spreg\AppData\Local\Temp\ccWZxsOs.o
 .MIPS.abiflags
                0x0000000000000000       0x18 C:\Users\spreg\AppData\Local\Temp\ccWZxsOs.o
 .text          0x0000000000000000        0x0 C:\Users\spreg\AppData\Local\Temp\ccerR0EP.o
 .data          0x0000000000000000        0x0 C:\Users\spreg\AppData\Local\Temp\ccerR0EP.o
 .bss           0x0000000000000000        0x0 C:\Users\spreg\AppData\Local\Temp\ccerR0EP.o
 .reginfo       0x0000000000000000       0x18 C:\Users\spreg\AppData\Local\Temp\ccerR0EP.o
 .MIPS.abiflags
                0x0000000000000000       0x18 C:\Users\spreg\AppData\Local\Temp\ccerR0EP.o
 .text          0x0000000000000000        0x0 C:\Users\spreg\AppData\Local\Temp\ccAcOKZk.o
 .data          0x0000000000000000        0x0 C:\Users\spreg\AppData\Local\Temp\ccAcOKZk.o
 .bss           0x0000000000000000        0x0 C:\Users\spreg\AppData\Local\Temp\ccAcOKZk.o
 .reginfo       0x0000000000000000       0x18 C:\Users\spreg\AppData\Local\Temp\ccAcOKZk.o
 .MIPS.abiflags
                0x0000000000000000       0x18 C:\Users\spreg\AppData\Local\Temp\ccAcOKZk.o
 .discard       0x0000000000000000        0x4 C:\Users\spreg\AppData\Local\Temp\ccAcOKZk.o
 .data          0x0000000000000000        0x0 c:/program files/microchip/xc32/v4.21/bin/bin/../../lib/gcc/pic32mx/8.3.1/../../../../pic32mx/lib/fpu64\pic32_software_reset.o
 .bss           0x0000000000000000        0x0 c:/program files/microchip/xc32/v4.21/bin/bin/../../lib/gcc/pic32mx/8.3.1/../../../../pic32mx/lib/fpu64\pic32_software_reset.o
 .reginfo       0x0000000000000000       0x18 c:/program files/microchip/xc32/v4.21/bin/bin/../../lib/gcc/pic32mx/8.3.1/../../../../pic32mx/lib/fpu64\pic32_software_reset.o
 .MIPS.abiflags
                0x0000000000000000       0x18 c:/program files/microchip/xc32/v4.21/bin/bin/../../lib/gcc/pic32mx/8.3.1/../../../../pic32mx/lib/fpu64\pic32_software_reset.o
 .xc_stack_usage.hdr
                0x0000000000000000        0xe c:/program files/microchip/xc32/v4.21/bin/bin/../../lib/gcc/pic32mx/8.3.1/../../../../pic32mx/lib/fpu64\pic32_software_reset.o
 .xc_stack_usage
                0x0000000000000000       0x24 c:/program files/microchip/xc32/v4.21/bin/bin/../../lib/gcc/pic32mx/8.3.1/../../../../pic32mx/lib/fpu64\pic32_software_reset.o
 .data          0x0000000000000000        0x0 c:/program files/microchip/xc32/v4.21/bin/bin/../../lib/gcc/pic32mx/8.3.1/fpu64\libgcc.a(_udivdi3.o)
 .bss           0x0000000000000000        0x0 c:/program files/microchip/xc32/v4.21/bin/bin/../../lib/gcc/pic32mx/8.3.1/fpu64\libgcc.a(_udivdi3.o)
 .reginfo       0x0000000000000000       0x18 c:/program files/microchip/xc32/v4.21/bin/bin/../../lib/gcc/pic32mx/8.3.1/fpu64\libgcc.a(_udivdi3.o)
 .MIPS.abiflags
                0x0000000000000000       0x18 c:/program files/microchip/xc32/v4.21/bin/bin/../../lib/gcc/pic32mx/8.3.1/fpu64\libgcc.a(_udivdi3.o)
 .xc_stack_usage
                0x0000000000000000       0x17 c:/program files/microchip/xc32/v4.21/bin/bin/../../lib/gcc/pic32mx/8.3.1/fpu64\libgcc.a(_udivdi3.o)
 .xc_stack_usage.hdr
                0x0000000000000000        0xe c:/program files/microchip/xc32/v4.21/bin/bin/../../lib/gcc/pic32mx/8.3.1/fpu64\libgcc.a(_udivdi3.o)
 .data          0x0000000000000000        0x0 c:/program files/microchip/xc32/v4.21/bin/bin/../../lib/gcc/pic32mx/8.3.1/../../../../pic32mx/lib/fpu64\libpic32.a(memcmp.o)
 .bss           0x0000000000000000        0x0 c:/program files/microchip/xc32/v4.21/bin/bin/../../lib/gcc/pic32mx/8.3.1/../../../../pic32mx/lib/fpu64\libpic32.a(memcmp.o)
 .reginfo       0x0000000000000000       0x18 c:/program files/microchip/xc32/v4.21/bin/bin/../../lib/gcc/pic32mx/8.3.1/../../../../pic32mx/lib/fpu64\libpic32.a(memcmp.o)
 .MIPS.abiflags
                0x0000000000000000       0x18 c:/program files/microchip/xc32/v4.21/bin/bin/../../lib/gcc/pic32mx/8.3.1/../../../../pic32mx/lib/fpu64\libpic32.a(memcmp.o)
 .xc_stack_usage.hdr
                0x0000000000000000        0xe c:/program files/microchip/xc32/v4.21/bin/bin/../../lib/gcc/pic32mx/8.3.1/../../../../pic32mx/lib/fpu64\libpic32.a(memcmp.o)
 .xc_stack_usage
                0x0000000000000000       0x14 c:/program files/microchip/xc32/v4.21/bin/bin/../../lib/gcc/pic32mx/8.3.1/../../../../pic32mx/lib/fpu64\libpic32.a(memcmp.o)
 .data          0x0000000000000000        0x0 c:/program files/microchip/xc32/v4.21/bin/bin/../../lib/gcc/pic32mx/8.3.1/../../../../pic32mx/lib/fpu64\libpic32.a(memcpy.o)
 .bss           0x0000000000000000        0x0 c:/program files/microchip/xc32/v4.21/bin/bin/../../lib/gcc/pic32mx/8.3.1/../../../../pic32mx/lib/fpu64\libpic32.a(memcpy.o)
 .reginfo       0x0000000000000000       0x18 c:/program files/microchip/xc32/v4.21/bin/bin/../../lib/gcc/pic32mx/8.3.1/../../../../pic32mx/lib/fpu64\libpic32.a(memcpy.o)
 .MIPS.abiflags
                0x0000000000000000       0x18 c:/program files/microchip/xc32/v4.21/bin/bin/../../lib/gcc/pic32mx/8.3.1/../../../../pic32mx/lib/fpu64\libpic32.a(memcpy.o)
 .xc_stack_usage.hdr
                0x0000000000000000        0xe c:/program files/microchip/xc32/v4.21/bin/bin/../../lib/gcc/pic32mx/8.3.1/../../../../pic32mx/lib/fpu64\libpic32.a(memcpy.o)
 .xc_stack_usage
                0x0000000000000000       0x14 c:/program files/microchip/xc32/v4.21/bin/bin/../../lib/gcc/pic32mx/8.3.1/../../../../pic32mx/lib/fpu64\libpic32.a(memcpy.o)
 .data          0x0000000000000000        0x0 c:/program files/microchip/xc32/v4.21/bin/bin/../../lib/gcc/pic32mx/8.3.1/../../../../pic32mx/lib/fpu64\libpic32.a(memset.o)
 .bss           0x0000000000000000        0x0 c:/program files/microchip/xc32/v4.21/bin/bin/../../lib/gcc/pic32mx/8.3.1/../../../../pic32mx/lib/fpu64\libpic32.a(memset.o)
 .reginfo       0x0000000000000000       0x18 c:/program files/microchip/xc32/v4.21/bin/bin/../../lib/gcc/pic32mx/8.3.1/../../../../pic32mx/lib/fpu64\libpic32.a(memset.o)
 .MIPS.abiflags
                0x0000000000000000       0x18 c:/program files/microchip/xc32/v4.21/bin/bin/../../lib/gcc/pic32mx/8.3.1/../../../../pic32mx/lib/fpu64\libpic32.a(memset.o)
 .xc_stack_usage.hdr
                0x0000000000000000        0xe c:/program files/microchip/xc32/v4.21/bin/bin/../../lib/gcc/pic32mx/8.3.1/../../../../pic32mx/lib/fpu64\libpic32.a(memset.o)
 .xc_stack_usage
                0x0000000000000000       0x14 c:/program files/microchip/xc32/v4.21/bin/bin/../../lib/gcc/pic32mx/8.3.1/../../../../pic32mx/lib/fpu64\libpic32.a(memset.o)
 .data          0x0000000000000000        0x0 c:/program files/microchip/xc32/v4.21/bin/bin/../../lib/gcc/pic32mx/8.3.1/../../../../pic32mx/lib/fpu64\libpic32.a(strcmp.o)
 .bss           0x0000000000000000        0x0 c:/program files/microchip/xc32/v4.21/bin/bin/../../lib/gcc/pic32mx/8.3.1/../../../../pic32mx/lib/fpu64\libpic32.a(strcmp.o)
 .reginfo       0x0000000000000000       0x18 c:/program files/microchip/xc32/v4.21/bin/bin/../../lib/gcc/pic32mx/8.3.1/../../../../pic32mx/lib/fpu64\libpic32.a(strcmp.o)
 .MIPS.abiflags
                0x0000000000000000       0x18 c:/program files/microchip/xc32/v4.21/bin/bin/../../lib/gcc/pic32mx/8.3.1/../../../../pic32mx/lib/fpu64\libpic32.a(strcmp.o)
 .xc_stack_usage.hdr
                0x0000000000000000        0xe c:/program files/microchip/xc32/v4.21/bin/bin/../../lib/gcc/pic32mx/8.3.1/../../../../pic32mx/lib/fpu64\libpic32.a(strcmp.o)
 .xc_stack_usage
                0x0000000000000000       0x14 c:/program files/microchip/xc32/v4.21/bin/bin/../../lib/gcc/pic32mx/8.3.1/../../../../pic32mx/lib/fpu64\libpic32.a(strcmp.o)
 .data          0x0000000000000000        0x0 c:/program files/microchip/xc32/v4.21/bin/bin/../../lib/gcc/pic32mx/8.3.1/../../../../pic32mx/lib/fpu64\libpic32.a(strcpy.o)
 .bss           0x0000000000000000        0x0 c:/program files/microchip/xc32/v4.21/bin/bin/../../lib/gcc/pic32mx/8.3.1/../../../../pic32mx/lib/fpu64\libpic32.a(strcpy.o)
 .reginfo       0x0000000000000000       0x18 c:/program files/microchip/xc32/v4.21/bin/bin/../../lib/gcc/pic32mx/8.3.1/../../../../pic32mx/lib/fpu64\libpic32.a(strcpy.o)
 .MIPS.abiflags
                0x0000000000000000       0x18 c:/program files/microchip/xc32/v4.21/bin/bin/../../lib/gcc/pic32mx/8.3.1/../../../../pic32mx/lib/fpu64\libpic32.a(strcpy.o)
 .xc_stack_usage.hdr
                0x0000000000000000        0xe c:/program files/microchip/xc32/v4.21/bin/bin/../../lib/gcc/pic32mx/8.3.1/../../../../pic32mx/lib/fpu64\libpic32.a(strcpy.o)
 .xc_stack_usage
                0x0000000000000000       0x14 c:/program files/microchip/xc32/v4.21/bin/bin/../../lib/gcc/pic32mx/8.3.1/../../../../pic32mx/lib/fpu64\libpic32.a(strcpy.o)
 .data          0x0000000000000000        0x0 c:/program files/microchip/xc32/v4.21/bin/bin/../../lib/gcc/pic32mx/8.3.1/../../../../pic32mx/lib/fpu64\libpic32.a(strlen.o)
 .bss           0x0000000000000000        0x0 c:/program files/microchip/xc32/v4.21/bin/bin/../../lib/gcc/pic32mx/8.3.1/../../../../pic32mx/lib/fpu64\libpic32.a(strlen.o)
 .reginfo       0x0000000000000000       0x18 c:/program files/microchip/xc32/v4.21/bin/bin/../../lib/gcc/pic32mx/8.3.1/../../../../pic32mx/lib/fpu64\libpic32.a(strlen.o)
 .MIPS.abiflags
                0x0000000000000000       0x18 c:/program files/microchip/xc32/v4.21/bin/bin/../../lib/gcc/pic32mx/8.3.1/../../../../pic32mx/lib/fpu64\libpic32.a(strlen.o)
 .xc_stack_usage.hdr
                0x0000000000000000        0xe c:/program files/microchip/xc32/v4.21/bin/bin/../../lib/gcc/pic32mx/8.3.1/../../../../pic32mx/lib/fpu64\libpic32.a(strlen.o)
 .xc_stack_usage
                0x0000000000000000       0x14 c:/program files/microchip/xc32/v4.21/bin/bin/../../lib/gcc/pic32mx/8.3.1/../../../../pic32mx/lib/fpu64\libpic32.a(strlen.o)
 .text          0x0000000000000000        0x0 c:/program files/microchip/xc32/v4.21/bin/bin/../../lib/gcc/pic32mx/8.3.1/../../../../pic32mx/lib/fpu64\libpic32.a(default-on-reset.o)
 .data          0x0000000000000000        0x0 c:/program files/microchip/xc32/v4.21/bin/bin/../../lib/gcc/pic32mx/8.3.1/../../../../pic32mx/lib/fpu64\libpic32.a(default-on-reset.o)
 .bss           0x0000000000000000        0x0 c:/program files/microchip/xc32/v4.21/bin/bin/../../lib/gcc/pic32mx/8.3.1/../../../../pic32mx/lib/fpu64\libpic32.a(default-on-reset.o)
 .reginfo       0x0000000000000000       0x18 c:/program files/microchip/xc32/v4.21/bin/bin/../../lib/gcc/pic32mx/8.3.1/../../../../pic32mx/lib/fpu64\libpic32.a(default-on-reset.o)
 .MIPS.abiflags
                0x0000000000000000       0x18 c:/program files/microchip/xc32/v4.21/bin/bin/../../lib/gcc/pic32mx/8.3.1/../../../../pic32mx/lib/fpu64\libpic32.a(default-on-reset.o)
 .xc_stack_usage
                0x0000000000000000       0x17 c:/program files/microchip/xc32/v4.21/bin/bin/../../lib/gcc/pic32mx/8.3.1/../../../../pic32mx/lib/fpu64\libpic32.a(default-on-reset.o)
 .xc_stack_usage.hdr
                0x0000000000000000        0xe c:/program files/microchip/xc32/v4.21/bin/bin/../../lib/gcc/pic32mx/8.3.1/../../../../pic32mx/lib/fpu64\libpic32.a(default-on-reset.o)
 .text          0x0000000000000000        0x0 c:/program files/microchip/xc32/v4.21/bin/bin/../../lib/gcc/pic32mx/8.3.1/../../../../pic32mx/lib/fpu64\libpic32.a(default-on-bootstrap.o)
 .data          0x0000000000000000        0x0 c:/program files/microchip/xc32/v4.21/bin/bin/../../lib/gcc/pic32mx/8.3.1/../../../../pic32mx/lib/fpu64\libpic32.a(default-on-bootstrap.o)
 .bss           0x0000000000000000        0x0 c:/program files/microchip/xc32/v4.21/bin/bin/../../lib/gcc/pic32mx/8.3.1/../../../../pic32mx/lib/fpu64\libpic32.a(default-on-bootstrap.o)
 .reginfo       0x0000000000000000       0x18 c:/program files/microchip/xc32/v4.21/bin/bin/../../lib/gcc/pic32mx/8.3.1/../../../../pic32mx/lib/fpu64\libpic32.a(default-on-bootstrap.o)
 .MIPS.abiflags
                0x0000000000000000       0x18 c:/program files/microchip/xc32/v4.21/bin/bin/../../lib/gcc/pic32mx/8.3.1/../../../../pic32mx/lib/fpu64\libpic32.a(default-on-bootstrap.o)
 .xc_stack_usage
                0x0000000000000000       0x1b c:/program files/microchip/xc32/v4.21/bin/bin/../../lib/gcc/pic32mx/8.3.1/../../../../pic32mx/lib/fpu64\libpic32.a(default-on-bootstrap.o)
 .xc_stack_usage.hdr
                0x0000000000000000        0xe c:/program files/microchip/xc32/v4.21/bin/bin/../../lib/gcc/pic32mx/8.3.1/../../../../pic32mx/lib/fpu64\libpic32.a(default-on-bootstrap.o)
 .data          0x0000000000000000        0x0 c:/program files/microchip/xc32/v4.21/bin/bin/../../lib/gcc/pic32mx/8.3.1/../../../../pic32mx/lib/fpu64\libpic32.a(default-nmi-handler.o)
 .bss           0x0000000000000000        0x0 c:/program files/microchip/xc32/v4.21/bin/bin/../../lib/gcc/pic32mx/8.3.1/../../../../pic32mx/lib/fpu64\libpic32.a(default-nmi-handler.o)
 .reginfo       0x0000000000000000       0x18 c:/program files/microchip/xc32/v4.21/bin/bin/../../lib/gcc/pic32mx/8.3.1/../../../../pic32mx/lib/fpu64\libpic32.a(default-nmi-handler.o)
 .MIPS.abiflags
                0x0000000000000000       0x18 c:/program files/microchip/xc32/v4.21/bin/bin/../../lib/gcc/pic32mx/8.3.1/../../../../pic32mx/lib/fpu64\libpic32.a(default-nmi-handler.o)
 .xc_stack_usage.hdr
                0x0000000000000000        0xe c:/program files/microchip/xc32/v4.21/bin/bin/../../lib/gcc/pic32mx/8.3.1/../../../../pic32mx/lib/fpu64\libpic32.a(default-nmi-handler.o)
 .xc_stack_usage
                0x0000000000000000       0x1a c:/program files/microchip/xc32/v4.21/bin/bin/../../lib/gcc/pic32mx/8.3.1/../../../../pic32mx/lib/fpu64\libpic32.a(default-nmi-handler.o)
 .text          0x0000000000000000        0x0 c:/program files/microchip/xc32/v4.21/bin/bin/../../lib/gcc/pic32mx/8.3.1/../../../../pic32mx/lib/fpu64\libpic32.a(pic32_data_init_wrapper.o)
 .data          0x0000000000000000        0x0 c:/program files/microchip/xc32/v4.21/bin/bin/../../lib/gcc/pic32mx/8.3.1/../../../../pic32mx/lib/fpu64\libpic32.a(pic32_data_init_wrapper.o)
 .bss           0x0000000000000000        0x0 c:/program files/microchip/xc32/v4.21/bin/bin/../../lib/gcc/pic32mx/8.3.1/../../../../pic32mx/lib/fpu64\libpic32.a(pic32_data_init_wrapper.o)
 .reginfo       0x0000000000000000       0x18 c:/program files/microchip/xc32/v4.21/bin/bin/../../lib/gcc/pic32mx/8.3.1/../../../../pic32mx/lib/fpu64\libpic32.a(pic32_data_init_wrapper.o)
 .MIPS.abiflags
                0x0000000000000000       0x18 c:/program files/microchip/xc32/v4.21/bin/bin/../../lib/gcc/pic32mx/8.3.1/../../../../pic32mx/lib/fpu64\libpic32.a(pic32_data_init_wrapper.o)
 .xc_stack_usage.hdr
                0x0000000000000000        0xe c:/program files/microchip/xc32/v4.21/bin/bin/../../lib/gcc/pic32mx/8.3.1/../../../../pic32mx/lib/fpu64\libpic32.a(pic32_data_init_wrapper.o)
 .xc_stack_usage
                0x0000000000000000       0x1f c:/program files/microchip/xc32/v4.21/bin/bin/../../lib/gcc/pic32mx/8.3.1/../../../../pic32mx/lib/fpu64\libpic32.a(pic32_data_init_wrapper.o)
 .text          0x0000000000000000        0x0 c:/program files/microchip/xc32/v4.21/bin/bin/../../lib/gcc/pic32mx/8.3.1/../../../../pic32mx/lib/fpu64\libpic32.a(pic32_data_init_0_1.o)
 .data          0x0000000000000000        0x0 c:/program files/microchip/xc32/v4.21/bin/bin/../../lib/gcc/pic32mx/8.3.1/../../../../pic32mx/lib/fpu64\libpic32.a(pic32_data_init_0_1.o)
 .bss           0x0000000000000000        0x0 c:/program files/microchip/xc32/v4.21/bin/bin/../../lib/gcc/pic32mx/8.3.1/../../../../pic32mx/lib/fpu64\libpic32.a(pic32_data_init_0_1.o)
 .reginfo       0x0000000000000000       0x18 c:/program files/microchip/xc32/v4.21/bin/bin/../../lib/gcc/pic32mx/8.3.1/../../../../pic32mx/lib/fpu64\libpic32.a(pic32_data_init_0_1.o)
 .MIPS.abiflags
                0x0000000000000000       0x18 c:/program files/microchip/xc32/v4.21/bin/bin/../../lib/gcc/pic32mx/8.3.1/../../../../pic32mx/lib/fpu64\libpic32.a(pic32_data_init_0_1.o)
 .xc_stack_usage.hdr
                0x0000000000000000        0xe c:/program files/microchip/xc32/v4.21/bin/bin/../../lib/gcc/pic32mx/8.3.1/../../../../pic32mx/lib/fpu64\libpic32.a(pic32_data_init_0_1.o)
 .xc_stack_usage
                0x0000000000000000       0x24 c:/program files/microchip/xc32/v4.21/bin/bin/../../lib/gcc/pic32mx/8.3.1/../../../../pic32mx/lib/fpu64\libpic32.a(pic32_data_init_0_1.o)
 .text          0x0000000000000000        0x0 c:/program files/microchip/xc32/v4.21/bin/bin/../../lib/gcc/pic32mx/8.3.1/../../../../pic32mx/lib/fpu64\libpic32.a(pic32_init_cache.o)
 .data          0x0000000000000000        0x0 c:/program files/microchip/xc32/v4.21/bin/bin/../../lib/gcc/pic32mx/8.3.1/../../../../pic32mx/lib/fpu64\libpic32.a(pic32_init_cache.o)
 .bss           0x0000000000000000        0x0 c:/program files/microchip/xc32/v4.21/bin/bin/../../lib/gcc/pic32mx/8.3.1/../../../../pic32mx/lib/fpu64\libpic32.a(pic32_init_cache.o)
 .reginfo       0x0000000000000000       0x18 c:/program files/microchip/xc32/v4.21/bin/bin/../../lib/gcc/pic32mx/8.3.1/../../../../pic32mx/lib/fpu64\libpic32.a(pic32_init_cache.o)
 .MIPS.abiflags
                0x0000000000000000       0x18 c:/program files/microchip/xc32/v4.21/bin/bin/../../lib/gcc/pic32mx/8.3.1/../../../../pic32mx/lib/fpu64\libpic32.a(pic32_init_cache.o)
 .cache_init.pic32_size_cache
                0x0000000000000000       0x58 c:/program files/microchip/xc32/v4.21/bin/bin/../../lib/gcc/pic32mx/8.3.1/../../../../pic32mx/lib/fpu64\libpic32.a(pic32_init_cache.o)
 .xc_stack_usage.hdr
                0x0000000000000000        0xe c:/program files/microchip/xc32/v4.21/bin/bin/../../lib/gcc/pic32mx/8.3.1/../../../../pic32mx/lib/fpu64\libpic32.a(pic32_init_cache.o)
 .xc_stack_usage
                0x0000000000000000       0x5a c:/program files/microchip/xc32/v4.21/bin/bin/../../lib/gcc/pic32mx/8.3.1/../../../../pic32mx/lib/fpu64\libpic32.a(pic32_init_cache.o)
 .text          0x0000000000000000        0x0 c:/program files/microchip/xc32/v4.21/bin/bin/../../lib/gcc/pic32mx/8.3.1/../../../../pic32mx/lib/fpu64\libpic32.a(pic32_init_tlb_ebi_sqi.o)
 .data          0x0000000000000000        0x0 c:/program files/microchip/xc32/v4.21/bin/bin/../../lib/gcc/pic32mx/8.3.1/../../../../pic32mx/lib/fpu64\libpic32.a(pic32_init_tlb_ebi_sqi.o)
 .bss           0x0000000000000000        0x0 c:/program files/microchip/xc32/v4.21/bin/bin/../../lib/gcc/pic32mx/8.3.1/../../../../pic32mx/lib/fpu64\libpic32.a(pic32_init_tlb_ebi_sqi.o)
 .reginfo       0x0000000000000000       0x18 c:/program files/microchip/xc32/v4.21/bin/bin/../../lib/gcc/pic32mx/8.3.1/../../../../pic32mx/lib/fpu64\libpic32.a(pic32_init_tlb_ebi_sqi.o)
 .MIPS.abiflags
                0x0000000000000000       0x18 c:/program files/microchip/xc32/v4.21/bin/bin/../../lib/gcc/pic32mx/8.3.1/../../../../pic32mx/lib/fpu64\libpic32.a(pic32_init_tlb_ebi_sqi.o)
 .xc_stack_usage.hdr
                0x0000000000000000        0xe c:/program files/microchip/xc32/v4.21/bin/bin/../../lib/gcc/pic32mx/8.3.1/../../../../pic32mx/lib/fpu64\libpic32.a(pic32_init_tlb_ebi_sqi.o)
 .xc_stack_usage
                0x0000000000000000       0x26 c:/program files/microchip/xc32/v4.21/bin/bin/../../lib/gcc/pic32mx/8.3.1/../../../../pic32mx/lib/fpu64\libpic32.a(pic32_init_tlb_ebi_sqi.o)
 .text          0x0000000000000000        0x0 c:/program files/microchip/xc32/v4.21/bin/bin/../../lib/gcc/pic32mx/8.3.1/../../../../pic32mx/lib/fpu64\libpic32.a(general-exception.o)
 .data          0x0000000000000000        0x0 c:/program files/microchip/xc32/v4.21/bin/bin/../../lib/gcc/pic32mx/8.3.1/../../../../pic32mx/lib/fpu64\libpic32.a(general-exception.o)
 .bss           0x0000000000000000        0x0 c:/program files/microchip/xc32/v4.21/bin/bin/../../lib/gcc/pic32mx/8.3.1/../../../../pic32mx/lib/fpu64\libpic32.a(general-exception.o)
 .reginfo       0x0000000000000000       0x18 c:/program files/microchip/xc32/v4.21/bin/bin/../../lib/gcc/pic32mx/8.3.1/../../../../pic32mx/lib/fpu64\libpic32.a(general-exception.o)
 .MIPS.abiflags
                0x0000000000000000       0x18 c:/program files/microchip/xc32/v4.21/bin/bin/../../lib/gcc/pic32mx/8.3.1/../../../../pic32mx/lib/fpu64\libpic32.a(general-exception.o)
 .xc_stack_usage.hdr
                0x0000000000000000        0xe c:/program files/microchip/xc32/v4.21/bin/bin/../../lib/gcc/pic32mx/8.3.1/../../../../pic32mx/lib/fpu64\libpic32.a(general-exception.o)
 .xc_stack_usage
                0x0000000000000000       0x28 c:/program files/microchip/xc32/v4.21/bin/bin/../../lib/gcc/pic32mx/8.3.1/../../../../pic32mx/lib/fpu64\libpic32.a(general-exception.o)
 .text          0x0000000000000000        0x0 c:/program files/microchip/xc32/v4.21/bin/bin/../../lib/gcc/pic32mx/8.3.1/../../../../pic32mx/lib/fpu64\libpic32.a(cache-err-exception.o)
 .data          0x0000000000000000        0x0 c:/program files/microchip/xc32/v4.21/bin/bin/../../lib/gcc/pic32mx/8.3.1/../../../../pic32mx/lib/fpu64\libpic32.a(cache-err-exception.o)
 .bss           0x0000000000000000        0x0 c:/program files/microchip/xc32/v4.21/bin/bin/../../lib/gcc/pic32mx/8.3.1/../../../../pic32mx/lib/fpu64\libpic32.a(cache-err-exception.o)
 .reginfo       0x0000000000000000       0x18 c:/program files/microchip/xc32/v4.21/bin/bin/../../lib/gcc/pic32mx/8.3.1/../../../../pic32mx/lib/fpu64\libpic32.a(cache-err-exception.o)
 .MIPS.abiflags
                0x0000000000000000       0x18 c:/program files/microchip/xc32/v4.21/bin/bin/../../lib/gcc/pic32mx/8.3.1/../../../../pic32mx/lib/fpu64\libpic32.a(cache-err-exception.o)
 .xc_stack_usage.hdr
                0x0000000000000000        0xe c:/program files/microchip/xc32/v4.21/bin/bin/../../lib/gcc/pic32mx/8.3.1/../../../../pic32mx/lib/fpu64\libpic32.a(cache-err-exception.o)
 .xc_stack_usage
                0x0000000000000000       0x2a c:/program files/microchip/xc32/v4.21/bin/bin/../../lib/gcc/pic32mx/8.3.1/../../../../pic32mx/lib/fpu64\libpic32.a(cache-err-exception.o)
 .text          0x0000000000000000        0x0 c:/program files/microchip/xc32/v4.21/bin/bin/../../lib/gcc/pic32mx/8.3.1/../../../../pic32mx/lib/fpu64\libpic32.a(simple-tlb-refill-exception.o)
 .data          0x0000000000000000        0x0 c:/program files/microchip/xc32/v4.21/bin/bin/../../lib/gcc/pic32mx/8.3.1/../../../../pic32mx/lib/fpu64\libpic32.a(simple-tlb-refill-exception.o)
 .bss           0x0000000000000000        0x0 c:/program files/microchip/xc32/v4.21/bin/bin/../../lib/gcc/pic32mx/8.3.1/../../../../pic32mx/lib/fpu64\libpic32.a(simple-tlb-refill-exception.o)
 .reginfo       0x0000000000000000       0x18 c:/program files/microchip/xc32/v4.21/bin/bin/../../lib/gcc/pic32mx/8.3.1/../../../../pic32mx/lib/fpu64\libpic32.a(simple-tlb-refill-exception.o)
 .MIPS.abiflags
                0x0000000000000000       0x18 c:/program files/microchip/xc32/v4.21/bin/bin/../../lib/gcc/pic32mx/8.3.1/../../../../pic32mx/lib/fpu64\libpic32.a(simple-tlb-refill-exception.o)
 .xc_stack_usage.hdr
                0x0000000000000000        0xe c:/program files/microchip/xc32/v4.21/bin/bin/../../lib/gcc/pic32mx/8.3.1/../../../../pic32mx/lib/fpu64\libpic32.a(simple-tlb-refill-exception.o)
 .xc_stack_usage
                0x0000000000000000       0x32 c:/program files/microchip/xc32/v4.21/bin/bin/../../lib/gcc/pic32mx/8.3.1/../../../../pic32mx/lib/fpu64\libpic32.a(simple-tlb-refill-exception.o)
 .text          0x0000000000000000        0x0 c:/program files/microchip/xc32/v4.21/bin/bin/../../lib/gcc/pic32mx/8.3.1/../../../../pic32mx/lib/fpu64\libpic32.a(defaultinterrupt.o)
 .data          0x0000000000000000        0x0 c:/program files/microchip/xc32/v4.21/bin/bin/../../lib/gcc/pic32mx/8.3.1/../../../../pic32mx/lib/fpu64\libpic32.a(defaultinterrupt.o)
 .bss           0x0000000000000000        0x0 c:/program files/microchip/xc32/v4.21/bin/bin/../../lib/gcc/pic32mx/8.3.1/../../../../pic32mx/lib/fpu64\libpic32.a(defaultinterrupt.o)
 .reginfo       0x0000000000000000       0x18 c:/program files/microchip/xc32/v4.21/bin/bin/../../lib/gcc/pic32mx/8.3.1/../../../../pic32mx/lib/fpu64\libpic32.a(defaultinterrupt.o)
 .MIPS.abiflags
                0x0000000000000000       0x18 c:/program files/microchip/xc32/v4.21/bin/bin/../../lib/gcc/pic32mx/8.3.1/../../../../pic32mx/lib/fpu64\libpic32.a(defaultinterrupt.o)
 .xc_stack_usage
                0x0000000000000000       0x1f c:/program files/microchip/xc32/v4.21/bin/bin/../../lib/gcc/pic32mx/8.3.1/../../../../pic32mx/lib/fpu64\libpic32.a(defaultinterrupt.o)
 .xc_stack_usage.hdr
                0x0000000000000000        0xe c:/program files/microchip/xc32/v4.21/bin/bin/../../lib/gcc/pic32mx/8.3.1/../../../../pic32mx/lib/fpu64\libpic32.a(defaultinterrupt.o)
 .text          0x0000000000000000        0x0 c:/program files/microchip/xc32/v4.21/bin/bin/../../lib/gcc/pic32mx/8.3.1/../../../../pic32mx/lib/fpu64\libc-musl.a(__sio_printf_dosux.o)
 .data          0x0000000000000000        0x0 c:/program files/microchip/xc32/v4.21/bin/bin/../../lib/gcc/pic32mx/8.3.1/../../../../pic32mx/lib/fpu64\libc-musl.a(__sio_printf_dosux.o)
 .bss           0x0000000000000000        0x0 c:/program files/microchip/xc32/v4.21/bin/bin/../../lib/gcc/pic32mx/8.3.1/../../../../pic32mx/lib/fpu64\libc-musl.a(__sio_printf_dosux.o)
 .reginfo       0x0000000000000000       0x18 c:/program files/microchip/xc32/v4.21/bin/bin/../../lib/gcc/pic32mx/8.3.1/../../../../pic32mx/lib/fpu64\libc-musl.a(__sio_printf_dosux.o)
 .MIPS.abiflags
                0x0000000000000000       0x18 c:/program files/microchip/xc32/v4.21/bin/bin/../../lib/gcc/pic32mx/8.3.1/../../../../pic32mx/lib/fpu64\libc-musl.a(__sio_printf_dosux.o)
 .xc_stack_usage
                0x0000000000000000       0x3b c:/program files/microchip/xc32/v4.21/bin/bin/../../lib/gcc/pic32mx/8.3.1/../../../../pic32mx/lib/fpu64\libc-musl.a(__sio_printf_dosux.o)
 .text.__sio_printf_dosux
                0x0000000000000000       0x4c c:/program files/microchip/xc32/v4.21/bin/bin/../../lib/gcc/pic32mx/8.3.1/../../../../pic32mx/lib/fpu64\libc-musl.a(__sio_printf_dosux.o)
 .xc_stack_usage.hdr
                0x0000000000000000        0xe c:/program files/microchip/xc32/v4.21/bin/bin/../../lib/gcc/pic32mx/8.3.1/../../../../pic32mx/lib/fpu64\libc-musl.a(__sio_printf_dosux.o)
 .note.GNU-stack
                0x0000000000000000        0x0 c:/program files/microchip/xc32/v4.21/bin/bin/../../lib/gcc/pic32mx/8.3.1/../../../../pic32mx/lib/fpu64\libc-musl.a(__sio_printf_dosux.o)
 .text          0x0000000000000000        0x0 c:/program files/microchip/xc32/v4.21/bin/bin/../../lib/gcc/pic32mx/8.3.1/../../../../pic32mx/lib/fpu64\libc-musl.a(__fmt_d.o)
 .data          0x0000000000000000        0x0 c:/program files/microchip/xc32/v4.21/bin/bin/../../lib/gcc/pic32mx/8.3.1/../../../../pic32mx/lib/fpu64\libc-musl.a(__fmt_d.o)
 .bss           0x0000000000000000        0x0 c:/program files/microchip/xc32/v4.21/bin/bin/../../lib/gcc/pic32mx/8.3.1/../../../../pic32mx/lib/fpu64\libc-musl.a(__fmt_d.o)
 .reginfo       0x0000000000000000       0x18 c:/program files/microchip/xc32/v4.21/bin/bin/../../lib/gcc/pic32mx/8.3.1/../../../../pic32mx/lib/fpu64\libc-musl.a(__fmt_d.o)
 .MIPS.abiflags
                0x0000000000000000       0x18 c:/program files/microchip/xc32/v4.21/bin/bin/../../lib/gcc/pic32mx/8.3.1/../../../../pic32mx/lib/fpu64\libc-musl.a(__fmt_d.o)
 .xc_stack_usage
                0x0000000000000000       0x15 c:/program files/microchip/xc32/v4.21/bin/bin/../../lib/gcc/pic32mx/8.3.1/../../../../pic32mx/lib/fpu64\libc-musl.a(__fmt_d.o)
 .xc_stack_usage.hdr
                0x0000000000000000        0xe c:/program files/microchip/xc32/v4.21/bin/bin/../../lib/gcc/pic32mx/8.3.1/../../../../pic32mx/lib/fpu64\libc-musl.a(__fmt_d.o)
 .note.GNU-stack
                0x0000000000000000        0x0 c:/program files/microchip/xc32/v4.21/bin/bin/../../lib/gcc/pic32mx/8.3.1/../../../../pic32mx/lib/fpu64\libc-musl.a(__fmt_d.o)
 .text          0x0000000000000000        0x0 c:/program files/microchip/xc32/v4.21/bin/bin/../../lib/gcc/pic32mx/8.3.1/../../../../pic32mx/lib/fpu64\libc-musl.a(__fmt_o.o)
 .data          0x0000000000000000        0x0 c:/program files/microchip/xc32/v4.21/bin/bin/../../lib/gcc/pic32mx/8.3.1/../../../../pic32mx/lib/fpu64\libc-musl.a(__fmt_o.o)
 .bss           0x0000000000000000        0x0 c:/program files/microchip/xc32/v4.21/bin/bin/../../lib/gcc/pic32mx/8.3.1/../../../../pic32mx/lib/fpu64\libc-musl.a(__fmt_o.o)
 .reginfo       0x0000000000000000       0x18 c:/program files/microchip/xc32/v4.21/bin/bin/../../lib/gcc/pic32mx/8.3.1/../../../../pic32mx/lib/fpu64\libc-musl.a(__fmt_o.o)
 .MIPS.abiflags
                0x0000000000000000       0x18 c:/program files/microchip/xc32/v4.21/bin/bin/../../lib/gcc/pic32mx/8.3.1/../../../../pic32mx/lib/fpu64\libc-musl.a(__fmt_o.o)
 .xc_stack_usage
                0x0000000000000000       0x15 c:/program files/microchip/xc32/v4.21/bin/bin/../../lib/gcc/pic32mx/8.3.1/../../../../pic32mx/lib/fpu64\libc-musl.a(__fmt_o.o)
 .xc_stack_usage.hdr
                0x0000000000000000        0xe c:/program files/microchip/xc32/v4.21/bin/bin/../../lib/gcc/pic32mx/8.3.1/../../../../pic32mx/lib/fpu64\libc-musl.a(__fmt_o.o)
 .note.GNU-stack
                0x0000000000000000        0x0 c:/program files/microchip/xc32/v4.21/bin/bin/../../lib/gcc/pic32mx/8.3.1/../../../../pic32mx/lib/fpu64\libc-musl.a(__fmt_o.o)
 .text          0x0000000000000000        0x0 c:/program files/microchip/xc32/v4.21/bin/bin/../../lib/gcc/pic32mx/8.3.1/../../../../pic32mx/lib/fpu64\libc-musl.a(__fmt_s.o)
 .data          0x0000000000000000        0x0 c:/program files/microchip/xc32/v4.21/bin/bin/../../lib/gcc/pic32mx/8.3.1/../../../../pic32mx/lib/fpu64\libc-musl.a(__fmt_s.o)
 .bss           0x0000000000000000        0x0 c:/program files/microchip/xc32/v4.21/bin/bin/../../lib/gcc/pic32mx/8.3.1/../../../../pic32mx/lib/fpu64\libc-musl.a(__fmt_s.o)
 .reginfo       0x0000000000000000       0x18 c:/program files/microchip/xc32/v4.21/bin/bin/../../lib/gcc/pic32mx/8.3.1/../../../../pic32mx/lib/fpu64\libc-musl.a(__fmt_s.o)
 .MIPS.abiflags
                0x0000000000000000       0x18 c:/program files/microchip/xc32/v4.21/bin/bin/../../lib/gcc/pic32mx/8.3.1/../../../../pic32mx/lib/fpu64\libc-musl.a(__fmt_s.o)
 .xc_stack_usage
                0x0000000000000000       0x15 c:/program files/microchip/xc32/v4.21/bin/bin/../../lib/gcc/pic32mx/8.3.1/../../../../pic32mx/lib/fpu64\libc-musl.a(__fmt_s.o)
 .xc_stack_usage.hdr
                0x0000000000000000        0xe c:/program files/microchip/xc32/v4.21/bin/bin/../../lib/gcc/pic32mx/8.3.1/../../../../pic32mx/lib/fpu64\libc-musl.a(__fmt_s.o)
 .note.GNU-stack
                0x0000000000000000        0x0 c:/program files/microchip/xc32/v4.21/bin/bin/../../lib/gcc/pic32mx/8.3.1/../../../../pic32mx/lib/fpu64\libc-musl.a(__fmt_s.o)
 .text          0x0000000000000000        0x0 c:/program files/microchip/xc32/v4.21/bin/bin/../../lib/gcc/pic32mx/8.3.1/../../../../pic32mx/lib/fpu64\libc-musl.a(__fmt_u.o)
 .data          0x0000000000000000        0x0 c:/program files/microchip/xc32/v4.21/bin/bin/../../lib/gcc/pic32mx/8.3.1/../../../../pic32mx/lib/fpu64\libc-musl.a(__fmt_u.o)
 .bss           0x0000000000000000        0x0 c:/program files/microchip/xc32/v4.21/bin/bin/../../lib/gcc/pic32mx/8.3.1/../../../../pic32mx/lib/fpu64\libc-musl.a(__fmt_u.o)
 .reginfo       0x0000000000000000       0x18 c:/program files/microchip/xc32/v4.21/bin/bin/../../lib/gcc/pic32mx/8.3.1/../../../../pic32mx/lib/fpu64\libc-musl.a(__fmt_u.o)
 .MIPS.abiflags
                0x0000000000000000       0x18 c:/program files/microchip/xc32/v4.21/bin/bin/../../lib/gcc/pic32mx/8.3.1/../../../../pic32mx/lib/fpu64\libc-musl.a(__fmt_u.o)
 .xc_stack_usage
                0x0000000000000000       0x2a c:/program files/microchip/xc32/v4.21/bin/bin/../../lib/gcc/pic32mx/8.3.1/../../../../pic32mx/lib/fpu64\libc-musl.a(__fmt_u.o)
 .xc_stack_usage.hdr
                0x0000000000000000        0xe c:/program files/microchip/xc32/v4.21/bin/bin/../../lib/gcc/pic32mx/8.3.1/../../../../pic32mx/lib/fpu64\libc-musl.a(__fmt_u.o)
 .note.GNU-stack
                0x0000000000000000        0x0 c:/program files/microchip/xc32/v4.21/bin/bin/../../lib/gcc/pic32mx/8.3.1/../../../../pic32mx/lib/fpu64\libc-musl.a(__fmt_u.o)
 .text          0x0000000000000000        0x0 c:/program files/microchip/xc32/v4.21/bin/bin/../../lib/gcc/pic32mx/8.3.1/../../../../pic32mx/lib/fpu64\libc-musl.a(__fmt_x.o)
 .data          0x0000000000000000        0x0 c:/program files/microchip/xc32/v4.21/bin/bin/../../lib/gcc/pic32mx/8.3.1/../../../../pic32mx/lib/fpu64\libc-musl.a(__fmt_x.o)
 .bss           0x0000000000000000        0x0 c:/program files/microchip/xc32/v4.21/bin/bin/../../lib/gcc/pic32mx/8.3.1/../../../../pic32mx/lib/fpu64\libc-musl.a(__fmt_x.o)
 .reginfo       0x0000000000000000       0x18 c:/program files/microchip/xc32/v4.21/bin/bin/../../lib/gcc/pic32mx/8.3.1/../../../../pic32mx/lib/fpu64\libc-musl.a(__fmt_x.o)
 .MIPS.abiflags
                0x0000000000000000       0x18 c:/program files/microchip/xc32/v4.21/bin/bin/../../lib/gcc/pic32mx/8.3.1/../../../../pic32mx/lib/fpu64\libc-musl.a(__fmt_x.o)
 .xc_stack_usage
                0x0000000000000000       0x15 c:/program files/microchip/xc32/v4.21/bin/bin/../../lib/gcc/pic32mx/8.3.1/../../../../pic32mx/lib/fpu64\libc-musl.a(__fmt_x.o)
 .xc_stack_usage.hdr
                0x0000000000000000        0xe c:/program files/microchip/xc32/v4.21/bin/bin/../../lib/gcc/pic32mx/8.3.1/../../../../pic32mx/lib/fpu64\libc-musl.a(__fmt_x.o)
 .note.GNU-stack
                0x0000000000000000        0x0 c:/program files/microchip/xc32/v4.21/bin/bin/../../lib/gcc/pic32mx/8.3.1/../../../../pic32mx/lib/fpu64\libc-musl.a(__fmt_x.o)
 .text          0x0000000000000000        0x0 c:/program files/microchip/xc32/v4.21/bin/bin/../../lib/gcc/pic32mx/8.3.1/../../../../pic32mx/lib/fpu64\libc-musl.a(__pop_int.o)
 .data          0x0000000000000000        0x0 c:/program files/microchip/xc32/v4.21/bin/bin/../../lib/gcc/pic32mx/8.3.1/../../../../pic32mx/lib/fpu64\libc-musl.a(__pop_int.o)
 .bss           0x0000000000000000        0x0 c:/program files/microchip/xc32/v4.21/bin/bin/../../lib/gcc/pic32mx/8.3.1/../../../../pic32mx/lib/fpu64\libc-musl.a(__pop_int.o)
 .reginfo       0x0000000000000000       0x18 c:/program files/microchip/xc32/v4.21/bin/bin/../../lib/gcc/pic32mx/8.3.1/../../../../pic32mx/lib/fpu64\libc-musl.a(__pop_int.o)
 .MIPS.abiflags
                0x0000000000000000       0x18 c:/program files/microchip/xc32/v4.21/bin/bin/../../lib/gcc/pic32mx/8.3.1/../../../../pic32mx/lib/fpu64\libc-musl.a(__pop_int.o)
 .xc_stack_usage
                0x0000000000000000       0x17 c:/program files/microchip/xc32/v4.21/bin/bin/../../lib/gcc/pic32mx/8.3.1/../../../../pic32mx/lib/fpu64\libc-musl.a(__pop_int.o)
 .xc_stack_usage.hdr
                0x0000000000000000        0xe c:/program files/microchip/xc32/v4.21/bin/bin/../../lib/gcc/pic32mx/8.3.1/../../../../pic32mx/lib/fpu64\libc-musl.a(__pop_int.o)
 .note.GNU-stack
                0x0000000000000000        0x0 c:/program files/microchip/xc32/v4.21/bin/bin/../../lib/gcc/pic32mx/8.3.1/../../../../pic32mx/lib/fpu64\libc-musl.a(__pop_int.o)
 .text          0x0000000000000000        0x0 c:/program files/microchip/xc32/v4.21/bin/bin/../../lib/gcc/pic32mx/8.3.1/../../../../pic32mx/lib/fpu64\libc-musl.a(__pop_ptr.o)
 .data          0x0000000000000000        0x0 c:/program files/microchip/xc32/v4.21/bin/bin/../../lib/gcc/pic32mx/8.3.1/../../../../pic32mx/lib/fpu64\libc-musl.a(__pop_ptr.o)
 .bss           0x0000000000000000        0x0 c:/program files/microchip/xc32/v4.21/bin/bin/../../lib/gcc/pic32mx/8.3.1/../../../../pic32mx/lib/fpu64\libc-musl.a(__pop_ptr.o)
 .reginfo       0x0000000000000000       0x18 c:/program files/microchip/xc32/v4.21/bin/bin/../../lib/gcc/pic32mx/8.3.1/../../../../pic32mx/lib/fpu64\libc-musl.a(__pop_ptr.o)
 .MIPS.abiflags
                0x0000000000000000       0x18 c:/program files/microchip/xc32/v4.21/bin/bin/../../lib/gcc/pic32mx/8.3.1/../../../../pic32mx/lib/fpu64\libc-musl.a(__pop_ptr.o)
 .xc_stack_usage
                0x0000000000000000       0x17 c:/program files/microchip/xc32/v4.21/bin/bin/../../lib/gcc/pic32mx/8.3.1/../../../../pic32mx/lib/fpu64\libc-musl.a(__pop_ptr.o)
 .xc_stack_usage.hdr
                0x0000000000000000        0xe c:/program files/microchip/xc32/v4.21/bin/bin/../../lib/gcc/pic32mx/8.3.1/../../../../pic32mx/lib/fpu64\libc-musl.a(__pop_ptr.o)
 .note.GNU-stack
                0x0000000000000000        0x0 c:/program files/microchip/xc32/v4.21/bin/bin/../../lib/gcc/pic32mx/8.3.1/../../../../pic32mx/lib/fpu64\libc-musl.a(__pop_ptr.o)
 .text          0x0000000000000000        0x0 c:/program files/microchip/xc32/v4.21/bin/bin/../../lib/gcc/pic32mx/8.3.1/../../../../pic32mx/lib/fpu64\libc-musl.a(__printf_core.o)
 .data          0x0000000000000000        0x0 c:/program files/microchip/xc32/v4.21/bin/bin/../../lib/gcc/pic32mx/8.3.1/../../../../pic32mx/lib/fpu64\libc-musl.a(__printf_core.o)
 .bss           0x0000000000000000        0x0 c:/program files/microchip/xc32/v4.21/bin/bin/../../lib/gcc/pic32mx/8.3.1/../../../../pic32mx/lib/fpu64\libc-musl.a(__printf_core.o)
 .reginfo       0x0000000000000000       0x18 c:/program files/microchip/xc32/v4.21/bin/bin/../../lib/gcc/pic32mx/8.3.1/../../../../pic32mx/lib/fpu64\libc-musl.a(__printf_core.o)
 .MIPS.abiflags
                0x0000000000000000       0x18 c:/program files/microchip/xc32/v4.21/bin/bin/../../lib/gcc/pic32mx/8.3.1/../../../../pic32mx/lib/fpu64\libc-musl.a(__printf_core.o)
 .xc_stack_usage
                0x0000000000000000       0xaf c:/program files/microchip/xc32/v4.21/bin/bin/../../lib/gcc/pic32mx/8.3.1/../../../../pic32mx/lib/fpu64\libc-musl.a(__printf_core.o)
 .text.__string_out
                0x0000000000000000       0x5c c:/program files/microchip/xc32/v4.21/bin/bin/../../lib/gcc/pic32mx/8.3.1/../../../../pic32mx/lib/fpu64\libc-musl.a(__printf_core.o)
 .text.__dummy_fmt3
                0x0000000000000000        0x8 c:/program files/microchip/xc32/v4.21/bin/bin/../../lib/gcc/pic32mx/8.3.1/../../../../pic32mx/lib/fpu64\libc-musl.a(__printf_core.o)
 .text.__dummy_fmts
                0x0000000000000000        0x8 c:/program files/microchip/xc32/v4.21/bin/bin/../../lib/gcc/pic32mx/8.3.1/../../../../pic32mx/lib/fpu64\libc-musl.a(__printf_core.o)
 .xc_stack_usage.hdr
                0x0000000000000000        0xe c:/program files/microchip/xc32/v4.21/bin/bin/../../lib/gcc/pic32mx/8.3.1/../../../../pic32mx/lib/fpu64\libc-musl.a(__printf_core.o)
 .note.GNU-stack
                0x0000000000000000        0x0 c:/program files/microchip/xc32/v4.21/bin/bin/../../lib/gcc/pic32mx/8.3.1/../../../../pic32mx/lib/fpu64\libc-musl.a(__printf_core.o)
 .text          0x0000000000000000        0x0 c:/program files/microchip/xc32/v4.21/bin/bin/../../lib/gcc/pic32mx/8.3.1/../../../../pic32mx/lib/fpu64\libc-musl.a(stdout.o)
 .bss           0x0000000000000000        0x0 c:/program files/microchip/xc32/v4.21/bin/bin/../../lib/gcc/pic32mx/8.3.1/../../../../pic32mx/lib/fpu64\libc-musl.a(stdout.o)
 .reginfo       0x0000000000000000       0x18 c:/program files/microchip/xc32/v4.21/bin/bin/../../lib/gcc/pic32mx/8.3.1/../../../../pic32mx/lib/fpu64\libc-musl.a(stdout.o)
 .MIPS.abiflags
                0x0000000000000000       0x18 c:/program files/microchip/xc32/v4.21/bin/bin/../../lib/gcc/pic32mx/8.3.1/../../../../pic32mx/lib/fpu64\libc-musl.a(stdout.o)
 .xc_stack_usage
                0x0000000000000000       0x3c c:/program files/microchip/xc32/v4.21/bin/bin/../../lib/gcc/pic32mx/8.3.1/../../../../pic32mx/lib/fpu64\libc-musl.a(stdout.o)
 .text.__init_stdout
                0x0000000000000000       0x20 c:/program files/microchip/xc32/v4.21/bin/bin/../../lib/gcc/pic32mx/8.3.1/../../../../pic32mx/lib/fpu64\libc-musl.a(stdout.o)
 .xc_stack_usage.hdr
                0x0000000000000000        0xe c:/program files/microchip/xc32/v4.21/bin/bin/../../lib/gcc/pic32mx/8.3.1/../../../../pic32mx/lib/fpu64\libc-musl.a(stdout.o)
 .note.GNU-stack
                0x0000000000000000        0x0 c:/program files/microchip/xc32/v4.21/bin/bin/../../lib/gcc/pic32mx/8.3.1/../../../../pic32mx/lib/fpu64\libc-musl.a(stdout.o)
 .text          0x0000000000000000        0x0 c:/program files/microchip/xc32/v4.21/bin/bin/../../lib/gcc/pic32mx/8.3.1/../../../../pic32mx/lib/fpu64\libc-musl.a(atoi.o)
 .data          0x0000000000000000        0x0 c:/program files/microchip/xc32/v4.21/bin/bin/../../lib/gcc/pic32mx/8.3.1/../../../../pic32mx/lib/fpu64\libc-musl.a(atoi.o)
 .bss           0x0000000000000000        0x0 c:/program files/microchip/xc32/v4.21/bin/bin/../../lib/gcc/pic32mx/8.3.1/../../../../pic32mx/lib/fpu64\libc-musl.a(atoi.o)
 .reginfo       0x0000000000000000       0x18 c:/program files/microchip/xc32/v4.21/bin/bin/../../lib/gcc/pic32mx/8.3.1/../../../../pic32mx/lib/fpu64\libc-musl.a(atoi.o)
 .MIPS.abiflags
                0x0000000000000000       0x18 c:/program files/microchip/xc32/v4.21/bin/bin/../../lib/gcc/pic32mx/8.3.1/../../../../pic32mx/lib/fpu64\libc-musl.a(atoi.o)
 .xc_stack_usage
                0x0000000000000000       0x12 c:/program files/microchip/xc32/v4.21/bin/bin/../../lib/gcc/pic32mx/8.3.1/../../../../pic32mx/lib/fpu64\libc-musl.a(atoi.o)
 .xc_stack_usage.hdr
                0x0000000000000000        0xe c:/program files/microchip/xc32/v4.21/bin/bin/../../lib/gcc/pic32mx/8.3.1/../../../../pic32mx/lib/fpu64\libc-musl.a(atoi.o)
 .note.GNU-stack
                0x0000000000000000        0x0 c:/program files/microchip/xc32/v4.21/bin/bin/../../lib/gcc/pic32mx/8.3.1/../../../../pic32mx/lib/fpu64\libc-musl.a(atoi.o)
 .text          0x0000000000000000        0x0 c:/program files/microchip/xc32/v4.21/bin/bin/../../lib/gcc/pic32mx/8.3.1/../../../../pic32mx/lib/fpu64\libc-musl.a(memmove.o)
 .data          0x0000000000000000        0x0 c:/program files/microchip/xc32/v4.21/bin/bin/../../lib/gcc/pic32mx/8.3.1/../../../../pic32mx/lib/fpu64\libc-musl.a(memmove.o)
 .bss           0x0000000000000000        0x0 c:/program files/microchip/xc32/v4.21/bin/bin/../../lib/gcc/pic32mx/8.3.1/../../../../pic32mx/lib/fpu64\libc-musl.a(memmove.o)
 .reginfo       0x0000000000000000       0x18 c:/program files/microchip/xc32/v4.21/bin/bin/../../lib/gcc/pic32mx/8.3.1/../../../../pic32mx/lib/fpu64\libc-musl.a(memmove.o)
 .MIPS.abiflags
                0x0000000000000000       0x18 c:/program files/microchip/xc32/v4.21/bin/bin/../../lib/gcc/pic32mx/8.3.1/../../../../pic32mx/lib/fpu64\libc-musl.a(memmove.o)
 .xc_stack_usage
                0x0000000000000000       0x15 c:/program files/microchip/xc32/v4.21/bin/bin/../../lib/gcc/pic32mx/8.3.1/../../../../pic32mx/lib/fpu64\libc-musl.a(memmove.o)
 .xc_stack_usage.hdr
                0x0000000000000000        0xe c:/program files/microchip/xc32/v4.21/bin/bin/../../lib/gcc/pic32mx/8.3.1/../../../../pic32mx/lib/fpu64\libc-musl.a(memmove.o)
 .note.GNU-stack
                0x0000000000000000        0x0 c:/program files/microchip/xc32/v4.21/bin/bin/../../lib/gcc/pic32mx/8.3.1/../../../../pic32mx/lib/fpu64\libc-musl.a(memmove.o)
 .text          0x0000000000000000        0x0 c:/program files/microchip/xc32/v4.21/bin/bin/../../lib/gcc/pic32mx/8.3.1/../../../../pic32mx/lib/fpu64\libc-musl.a(strcat.o)
 .data          0x0000000000000000        0x0 c:/program files/microchip/xc32/v4.21/bin/bin/../../lib/gcc/pic32mx/8.3.1/../../../../pic32mx/lib/fpu64\libc-musl.a(strcat.o)
 .bss           0x0000000000000000        0x0 c:/program files/microchip/xc32/v4.21/bin/bin/../../lib/gcc/pic32mx/8.3.1/../../../../pic32mx/lib/fpu64\libc-musl.a(strcat.o)
 .reginfo       0x0000000000000000       0x18 c:/program files/microchip/xc32/v4.21/bin/bin/../../lib/gcc/pic32mx/8.3.1/../../../../pic32mx/lib/fpu64\libc-musl.a(strcat.o)
 .MIPS.abiflags
                0x0000000000000000       0x18 c:/program files/microchip/xc32/v4.21/bin/bin/../../lib/gcc/pic32mx/8.3.1/../../../../pic32mx/lib/fpu64\libc-musl.a(strcat.o)
 .xc_stack_usage
                0x0000000000000000       0x14 c:/program files/microchip/xc32/v4.21/bin/bin/../../lib/gcc/pic32mx/8.3.1/../../../../pic32mx/lib/fpu64\libc-musl.a(strcat.o)
 .xc_stack_usage.hdr
                0x0000000000000000        0xe c:/program files/microchip/xc32/v4.21/bin/bin/../../lib/gcc/pic32mx/8.3.1/../../../../pic32mx/lib/fpu64\libc-musl.a(strcat.o)
 .note.GNU-stack
                0x0000000000000000        0x0 c:/program files/microchip/xc32/v4.21/bin/bin/../../lib/gcc/pic32mx/8.3.1/../../../../pic32mx/lib/fpu64\libc-musl.a(strcat.o)
 .text          0x0000000000000000        0x0 c:/program files/microchip/xc32/v4.21/bin/bin/../../lib/gcc/pic32mx/8.3.1/../../../../pic32mx/lib/fpu64\libc-musl.a(strncmp.o)
 .data          0x0000000000000000        0x0 c:/program files/microchip/xc32/v4.21/bin/bin/../../lib/gcc/pic32mx/8.3.1/../../../../pic32mx/lib/fpu64\libc-musl.a(strncmp.o)
 .bss           0x0000000000000000        0x0 c:/program files/microchip/xc32/v4.21/bin/bin/../../lib/gcc/pic32mx/8.3.1/../../../../pic32mx/lib/fpu64\libc-musl.a(strncmp.o)
 .reginfo       0x0000000000000000       0x18 c:/program files/microchip/xc32/v4.21/bin/bin/../../lib/gcc/pic32mx/8.3.1/../../../../pic32mx/lib/fpu64\libc-musl.a(strncmp.o)
 .MIPS.abiflags
                0x0000000000000000       0x18 c:/program files/microchip/xc32/v4.21/bin/bin/../../lib/gcc/pic32mx/8.3.1/../../../../pic32mx/lib/fpu64\libc-musl.a(strncmp.o)
 .xc_stack_usage
                0x0000000000000000       0x15 c:/program files/microchip/xc32/v4.21/bin/bin/../../lib/gcc/pic32mx/8.3.1/../../../../pic32mx/lib/fpu64\libc-musl.a(strncmp.o)
 .xc_stack_usage.hdr
                0x0000000000000000        0xe c:/program files/microchip/xc32/v4.21/bin/bin/../../lib/gcc/pic32mx/8.3.1/../../../../pic32mx/lib/fpu64\libc-musl.a(strncmp.o)
 .note.GNU-stack
                0x0000000000000000        0x0 c:/program files/microchip/xc32/v4.21/bin/bin/../../lib/gcc/pic32mx/8.3.1/../../../../pic32mx/lib/fpu64\libc-musl.a(strncmp.o)
 .text          0x0000000000000000        0x0 c:/program files/microchip/xc32/v4.21/bin/bin/../../lib/gcc/pic32mx/8.3.1/../../../../pic32mx/lib/fpu64\libc-musl.a(tolower.o)
 .data          0x0000000000000000        0x0 c:/program files/microchip/xc32/v4.21/bin/bin/../../lib/gcc/pic32mx/8.3.1/../../../../pic32mx/lib/fpu64\libc-musl.a(tolower.o)
 .bss           0x0000000000000000        0x0 c:/program files/microchip/xc32/v4.21/bin/bin/../../lib/gcc/pic32mx/8.3.1/../../../../pic32mx/lib/fpu64\libc-musl.a(tolower.o)
 .reginfo       0x0000000000000000       0x18 c:/program files/microchip/xc32/v4.21/bin/bin/../../lib/gcc/pic32mx/8.3.1/../../../../pic32mx/lib/fpu64\libc-musl.a(tolower.o)
 .MIPS.abiflags
                0x0000000000000000       0x18 c:/program files/microchip/xc32/v4.21/bin/bin/../../lib/gcc/pic32mx/8.3.1/../../../../pic32mx/lib/fpu64\libc-musl.a(tolower.o)
 .xc_stack_usage
                0x0000000000000000       0x2e c:/program files/microchip/xc32/v4.21/bin/bin/../../lib/gcc/pic32mx/8.3.1/../../../../pic32mx/lib/fpu64\libc-musl.a(tolower.o)
 .text.__tolower_l
                0x0000000000000000       0x1c c:/program files/microchip/xc32/v4.21/bin/bin/../../lib/gcc/pic32mx/8.3.1/../../../../pic32mx/lib/fpu64\libc-musl.a(tolower.o)
 .xc_stack_usage.hdr
                0x0000000000000000        0xe c:/program files/microchip/xc32/v4.21/bin/bin/../../lib/gcc/pic32mx/8.3.1/../../../../pic32mx/lib/fpu64\libc-musl.a(tolower.o)
 .note.GNU-stack
                0x0000000000000000        0x0 c:/program files/microchip/xc32/v4.21/bin/bin/../../lib/gcc/pic32mx/8.3.1/../../../../pic32mx/lib/fpu64\libc-musl.a(tolower.o)
 .text          0x0000000000000000        0x0 c:/program files/microchip/xc32/v4.21/bin/bin/../../lib/gcc/pic32mx/8.3.1/../../../../pic32mx/lib/fpu64\libc-musl.a(toupper.o)
 .data          0x0000000000000000        0x0 c:/program files/microchip/xc32/v4.21/bin/bin/../../lib/gcc/pic32mx/8.3.1/../../../../pic32mx/lib/fpu64\libc-musl.a(toupper.o)
 .bss           0x0000000000000000        0x0 c:/program files/microchip/xc32/v4.21/bin/bin/../../lib/gcc/pic32mx/8.3.1/../../../../pic32mx/lib/fpu64\libc-musl.a(toupper.o)
 .reginfo       0x0000000000000000       0x18 c:/program files/microchip/xc32/v4.21/bin/bin/../../lib/gcc/pic32mx/8.3.1/../../../../pic32mx/lib/fpu64\libc-musl.a(toupper.o)
 .MIPS.abiflags
                0x0000000000000000       0x18 c:/program files/microchip/xc32/v4.21/bin/bin/../../lib/gcc/pic32mx/8.3.1/../../../../pic32mx/lib/fpu64\libc-musl.a(toupper.o)
 .xc_stack_usage
                0x0000000000000000       0x2e c:/program files/microchip/xc32/v4.21/bin/bin/../../lib/gcc/pic32mx/8.3.1/../../../../pic32mx/lib/fpu64\libc-musl.a(toupper.o)
 .text.__toupper_l
                0x0000000000000000       0x1c c:/program files/microchip/xc32/v4.21/bin/bin/../../lib/gcc/pic32mx/8.3.1/../../../../pic32mx/lib/fpu64\libc-musl.a(toupper.o)
 .xc_stack_usage.hdr
                0x0000000000000000        0xe c:/program files/microchip/xc32/v4.21/bin/bin/../../lib/gcc/pic32mx/8.3.1/../../../../pic32mx/lib/fpu64\libc-musl.a(toupper.o)
 .note.GNU-stack
                0x0000000000000000        0x0 c:/program files/microchip/xc32/v4.21/bin/bin/../../lib/gcc/pic32mx/8.3.1/../../../../pic32mx/lib/fpu64\libc-musl.a(toupper.o)
 .text          0x0000000000000000        0x0 c:/program files/microchip/xc32/v4.21/bin/bin/../../lib/gcc/pic32mx/8.3.1/../../../../pic32mx/lib/fpu64\libc-musl.a(__int_vfprintf.o)
 .data          0x0000000000000000        0x0 c:/program files/microchip/xc32/v4.21/bin/bin/../../lib/gcc/pic32mx/8.3.1/../../../../pic32mx/lib/fpu64\libc-musl.a(__int_vfprintf.o)
 .bss           0x0000000000000000        0x0 c:/program files/microchip/xc32/v4.21/bin/bin/../../lib/gcc/pic32mx/8.3.1/../../../../pic32mx/lib/fpu64\libc-musl.a(__int_vfprintf.o)
 .reginfo       0x0000000000000000       0x18 c:/program files/microchip/xc32/v4.21/bin/bin/../../lib/gcc/pic32mx/8.3.1/../../../../pic32mx/lib/fpu64\libc-musl.a(__int_vfprintf.o)
 .MIPS.abiflags
                0x0000000000000000       0x18 c:/program files/microchip/xc32/v4.21/bin/bin/../../lib/gcc/pic32mx/8.3.1/../../../../pic32mx/lib/fpu64\libc-musl.a(__int_vfprintf.o)
 .xc_stack_usage
                0x0000000000000000       0x18 c:/program files/microchip/xc32/v4.21/bin/bin/../../lib/gcc/pic32mx/8.3.1/../../../../pic32mx/lib/fpu64\libc-musl.a(__int_vfprintf.o)
 .xc_stack_usage.hdr
                0x0000000000000000        0xe c:/program files/microchip/xc32/v4.21/bin/bin/../../lib/gcc/pic32mx/8.3.1/../../../../pic32mx/lib/fpu64\libc-musl.a(__int_vfprintf.o)
 .note.GNU-stack
                0x0000000000000000        0x0 c:/program files/microchip/xc32/v4.21/bin/bin/../../lib/gcc/pic32mx/8.3.1/../../../../pic32mx/lib/fpu64\libc-musl.a(__int_vfprintf.o)
 .text          0x0000000000000000        0x0 c:/program files/microchip/xc32/v4.21/bin/bin/../../lib/gcc/pic32mx/8.3.1/../../../../pic32mx/lib/fpu64\libc-musl.a(__fopen.o)
 .data          0x0000000000000000        0x0 c:/program files/microchip/xc32/v4.21/bin/bin/../../lib/gcc/pic32mx/8.3.1/../../../../pic32mx/lib/fpu64\libc-musl.a(__fopen.o)
 .bss           0x0000000000000000        0x0 c:/program files/microchip/xc32/v4.21/bin/bin/../../lib/gcc/pic32mx/8.3.1/../../../../pic32mx/lib/fpu64\libc-musl.a(__fopen.o)
 .reginfo       0x0000000000000000       0x18 c:/program files/microchip/xc32/v4.21/bin/bin/../../lib/gcc/pic32mx/8.3.1/../../../../pic32mx/lib/fpu64\libc-musl.a(__fopen.o)
 .MIPS.abiflags
                0x0000000000000000       0x18 c:/program files/microchip/xc32/v4.21/bin/bin/../../lib/gcc/pic32mx/8.3.1/../../../../pic32mx/lib/fpu64\libc-musl.a(__fopen.o)
 .xc_stack_usage
                0x0000000000000000       0x43 c:/program files/microchip/xc32/v4.21/bin/bin/../../lib/gcc/pic32mx/8.3.1/../../../../pic32mx/lib/fpu64\libc-musl.a(__fopen.o)
 .text.__fopen_std
                0x0000000000000000       0x60 c:/program files/microchip/xc32/v4.21/bin/bin/../../lib/gcc/pic32mx/8.3.1/../../../../pic32mx/lib/fpu64\libc-musl.a(__fopen.o)
 .text.__fopen  0x0000000000000000       0x1c c:/program files/microchip/xc32/v4.21/bin/bin/../../lib/gcc/pic32mx/8.3.1/../../../../pic32mx/lib/fpu64\libc-musl.a(__fopen.o)
 .xc_stack_usage.hdr
                0x0000000000000000        0xe c:/program files/microchip/xc32/v4.21/bin/bin/../../lib/gcc/pic32mx/8.3.1/../../../../pic32mx/lib/fpu64\libc-musl.a(__fopen.o)
 .note.GNU-stack
                0x0000000000000000        0x0 c:/program files/microchip/xc32/v4.21/bin/bin/../../lib/gcc/pic32mx/8.3.1/../../../../pic32mx/lib/fpu64\libc-musl.a(__fopen.o)
 .text          0x0000000000000000        0x0 c:/program files/microchip/xc32/v4.21/bin/bin/../../lib/gcc/pic32mx/8.3.1/../../../../pic32mx/lib/fpu64\libc-musl.a(__io_init_needed.o)
 .data          0x0000000000000000        0x0 c:/program files/microchip/xc32/v4.21/bin/bin/../../lib/gcc/pic32mx/8.3.1/../../../../pic32mx/lib/fpu64\libc-musl.a(__io_init_needed.o)
 .bss           0x0000000000000000        0x0 c:/program files/microchip/xc32/v4.21/bin/bin/../../lib/gcc/pic32mx/8.3.1/../../../../pic32mx/lib/fpu64\libc-musl.a(__io_init_needed.o)
 .reginfo       0x0000000000000000       0x18 c:/program files/microchip/xc32/v4.21/bin/bin/../../lib/gcc/pic32mx/8.3.1/../../../../pic32mx/lib/fpu64\libc-musl.a(__io_init_needed.o)
 .MIPS.abiflags
                0x0000000000000000       0x18 c:/program files/microchip/xc32/v4.21/bin/bin/../../lib/gcc/pic32mx/8.3.1/../../../../pic32mx/lib/fpu64\libc-musl.a(__io_init_needed.o)
 .xc_stack_usage
                0x0000000000000000       0x40 c:/program files/microchip/xc32/v4.21/bin/bin/../../lib/gcc/pic32mx/8.3.1/../../../../pic32mx/lib/fpu64\libc-musl.a(__io_init_needed.o)
 .xc_stack_usage.hdr
                0x0000000000000000        0xe c:/program files/microchip/xc32/v4.21/bin/bin/../../lib/gcc/pic32mx/8.3.1/../../../../pic32mx/lib/fpu64\libc-musl.a(__io_init_needed.o)
 .note.GNU-stack
                0x0000000000000000        0x0 c:/program files/microchip/xc32/v4.21/bin/bin/../../lib/gcc/pic32mx/8.3.1/../../../../pic32mx/lib/fpu64\libc-musl.a(__io_init_needed.o)
 .text          0x0000000000000000        0x0 c:/program files/microchip/xc32/v4.21/bin/bin/../../lib/gcc/pic32mx/8.3.1/../../../../pic32mx/lib/fpu64\libc-musl.a(__out.o)
 .data          0x0000000000000000        0x0 c:/program files/microchip/xc32/v4.21/bin/bin/../../lib/gcc/pic32mx/8.3.1/../../../../pic32mx/lib/fpu64\libc-musl.a(__out.o)
 .bss           0x0000000000000000        0x0 c:/program files/microchip/xc32/v4.21/bin/bin/../../lib/gcc/pic32mx/8.3.1/../../../../pic32mx/lib/fpu64\libc-musl.a(__out.o)
 .reginfo       0x0000000000000000       0x18 c:/program files/microchip/xc32/v4.21/bin/bin/../../lib/gcc/pic32mx/8.3.1/../../../../pic32mx/lib/fpu64\libc-musl.a(__out.o)
 .MIPS.abiflags
                0x0000000000000000       0x18 c:/program files/microchip/xc32/v4.21/bin/bin/../../lib/gcc/pic32mx/8.3.1/../../../../pic32mx/lib/fpu64\libc-musl.a(__out.o)
 .xc_stack_usage
                0x0000000000000000       0x2d c:/program files/microchip/xc32/v4.21/bin/bin/../../lib/gcc/pic32mx/8.3.1/../../../../pic32mx/lib/fpu64\libc-musl.a(__out.o)
 .xc_stack_usage.hdr
                0x0000000000000000        0xe c:/program files/microchip/xc32/v4.21/bin/bin/../../lib/gcc/pic32mx/8.3.1/../../../../pic32mx/lib/fpu64\libc-musl.a(__out.o)
 .note.GNU-stack
                0x0000000000000000        0x0 c:/program files/microchip/xc32/v4.21/bin/bin/../../lib/gcc/pic32mx/8.3.1/../../../../pic32mx/lib/fpu64\libc-musl.a(__out.o)
 .text          0x0000000000000000        0x0 c:/program files/microchip/xc32/v4.21/bin/bin/../../lib/gcc/pic32mx/8.3.1/../../../../pic32mx/lib/fpu64\libc-musl.a(__pop_float.o)
 .data          0x0000000000000000        0x0 c:/program files/microchip/xc32/v4.21/bin/bin/../../lib/gcc/pic32mx/8.3.1/../../../../pic32mx/lib/fpu64\libc-musl.a(__pop_float.o)
 .bss           0x0000000000000000        0x0 c:/program files/microchip/xc32/v4.21/bin/bin/../../lib/gcc/pic32mx/8.3.1/../../../../pic32mx/lib/fpu64\libc-musl.a(__pop_float.o)
 .reginfo       0x0000000000000000       0x18 c:/program files/microchip/xc32/v4.21/bin/bin/../../lib/gcc/pic32mx/8.3.1/../../../../pic32mx/lib/fpu64\libc-musl.a(__pop_float.o)
 .MIPS.abiflags
                0x0000000000000000       0x18 c:/program files/microchip/xc32/v4.21/bin/bin/../../lib/gcc/pic32mx/8.3.1/../../../../pic32mx/lib/fpu64\libc-musl.a(__pop_float.o)
 .xc_stack_usage
                0x0000000000000000       0x19 c:/program files/microchip/xc32/v4.21/bin/bin/../../lib/gcc/pic32mx/8.3.1/../../../../pic32mx/lib/fpu64\libc-musl.a(__pop_float.o)
 .xc_stack_usage.hdr
                0x0000000000000000        0xe c:/program files/microchip/xc32/v4.21/bin/bin/../../lib/gcc/pic32mx/8.3.1/../../../../pic32mx/lib/fpu64\libc-musl.a(__pop_float.o)
 .note.GNU-stack
                0x0000000000000000        0x0 c:/program files/microchip/xc32/v4.21/bin/bin/../../lib/gcc/pic32mx/8.3.1/../../../../pic32mx/lib/fpu64\libc-musl.a(__pop_float.o)
 .text          0x0000000000000000        0x0 c:/program files/microchip/xc32/v4.21/bin/bin/../../lib/gcc/pic32mx/8.3.1/../../../../pic32mx/lib/fpu64\libc-musl.a(__stdio_close.o)
 .data          0x0000000000000000        0x0 c:/program files/microchip/xc32/v4.21/bin/bin/../../lib/gcc/pic32mx/8.3.1/../../../../pic32mx/lib/fpu64\libc-musl.a(__stdio_close.o)
 .bss           0x0000000000000000        0x0 c:/program files/microchip/xc32/v4.21/bin/bin/../../lib/gcc/pic32mx/8.3.1/../../../../pic32mx/lib/fpu64\libc-musl.a(__stdio_close.o)
 .reginfo       0x0000000000000000       0x18 c:/program files/microchip/xc32/v4.21/bin/bin/../../lib/gcc/pic32mx/8.3.1/../../../../pic32mx/lib/fpu64\libc-musl.a(__stdio_close.o)
 .MIPS.abiflags
                0x0000000000000000       0x18 c:/program files/microchip/xc32/v4.21/bin/bin/../../lib/gcc/pic32mx/8.3.1/../../../../pic32mx/lib/fpu64\libc-musl.a(__stdio_close.o)
 .xc_stack_usage
                0x0000000000000000       0x39 c:/program files/microchip/xc32/v4.21/bin/bin/../../lib/gcc/pic32mx/8.3.1/../../../../pic32mx/lib/fpu64\libc-musl.a(__stdio_close.o)
 .text.__stdio_close
                0x0000000000000000       0xa0 c:/program files/microchip/xc32/v4.21/bin/bin/../../lib/gcc/pic32mx/8.3.1/../../../../pic32mx/lib/fpu64\libc-musl.a(__stdio_close.o)
 .xc_stack_usage.hdr
                0x0000000000000000        0xe c:/program files/microchip/xc32/v4.21/bin/bin/../../lib/gcc/pic32mx/8.3.1/../../../../pic32mx/lib/fpu64\libc-musl.a(__stdio_close.o)
 .note.GNU-stack
                0x0000000000000000        0x0 c:/program files/microchip/xc32/v4.21/bin/bin/../../lib/gcc/pic32mx/8.3.1/../../../../pic32mx/lib/fpu64\libc-musl.a(__stdio_close.o)
 .text          0x0000000000000000        0x0 c:/program files/microchip/xc32/v4.21/bin/bin/../../lib/gcc/pic32mx/8.3.1/../../../../pic32mx/lib/fpu64\libc-musl.a(malloc.o)
 .data          0x0000000000000000        0x0 c:/program files/microchip/xc32/v4.21/bin/bin/../../lib/gcc/pic32mx/8.3.1/../../../../pic32mx/lib/fpu64\libc-musl.a(malloc.o)
 .bss           0x0000000000000000      0x210 c:/program files/microchip/xc32/v4.21/bin/bin/../../lib/gcc/pic32mx/8.3.1/../../../../pic32mx/lib/fpu64\libc-musl.a(malloc.o)
 .reginfo       0x0000000000000000       0x18 c:/program files/microchip/xc32/v4.21/bin/bin/../../lib/gcc/pic32mx/8.3.1/../../../../pic32mx/lib/fpu64\libc-musl.a(malloc.o)
 .MIPS.abiflags
                0x0000000000000000       0x18 c:/program files/microchip/xc32/v4.21/bin/bin/../../lib/gcc/pic32mx/8.3.1/../../../../pic32mx/lib/fpu64\libc-musl.a(malloc.o)
 .xc_stack_usage
                0x0000000000000000       0xeb c:/program files/microchip/xc32/v4.21/bin/bin/../../lib/gcc/pic32mx/8.3.1/../../../../pic32mx/lib/fpu64\libc-musl.a(malloc.o)
 .text.bin_index
                0x0000000000000000       0x60 c:/program files/microchip/xc32/v4.21/bin/bin/../../lib/gcc/pic32mx/8.3.1/../../../../pic32mx/lib/fpu64\libc-musl.a(malloc.o)
 .text.adjust_size
                0x0000000000000000       0x58 c:/program files/microchip/xc32/v4.21/bin/bin/../../lib/gcc/pic32mx/8.3.1/../../../../pic32mx/lib/fpu64\libc-musl.a(malloc.o)
 .text.lock_bin
                0x0000000000000000       0x34 c:/program files/microchip/xc32/v4.21/bin/bin/../../lib/gcc/pic32mx/8.3.1/../../../../pic32mx/lib/fpu64\libc-musl.a(malloc.o)
 .text.unbin    0x0000000000000000       0xac c:/program files/microchip/xc32/v4.21/bin/bin/../../lib/gcc/pic32mx/8.3.1/../../../../pic32mx/lib/fpu64\libc-musl.a(malloc.o)
 .text.alloc_fwd
                0x0000000000000000       0x70 c:/program files/microchip/xc32/v4.21/bin/bin/../../lib/gcc/pic32mx/8.3.1/../../../../pic32mx/lib/fpu64\libc-musl.a(malloc.o)
 .text.alloc_rev
                0x0000000000000000       0x74 c:/program files/microchip/xc32/v4.21/bin/bin/../../lib/gcc/pic32mx/8.3.1/../../../../pic32mx/lib/fpu64\libc-musl.a(malloc.o)
 .text.free     0x0000000000000000      0x198 c:/program files/microchip/xc32/v4.21/bin/bin/../../lib/gcc/pic32mx/8.3.1/../../../../pic32mx/lib/fpu64\libc-musl.a(malloc.o)
 .text.trim     0x0000000000000000       0x58 c:/program files/microchip/xc32/v4.21/bin/bin/../../lib/gcc/pic32mx/8.3.1/../../../../pic32mx/lib/fpu64\libc-musl.a(malloc.o)
 .text.malloc   0x0000000000000000      0x290 c:/program files/microchip/xc32/v4.21/bin/bin/../../lib/gcc/pic32mx/8.3.1/../../../../pic32mx/lib/fpu64\libc-musl.a(malloc.o)
 .text.__malloc0
                0x0000000000000000       0x50 c:/program files/microchip/xc32/v4.21/bin/bin/../../lib/gcc/pic32mx/8.3.1/../../../../pic32mx/lib/fpu64\libc-musl.a(malloc.o)
 .text.realloc  0x0000000000000000      0x118 c:/program files/microchip/xc32/v4.21/bin/bin/../../lib/gcc/pic32mx/8.3.1/../../../../pic32mx/lib/fpu64\libc-musl.a(malloc.o)
 .rodata        0x0000000000000000       0x5c c:/program files/microchip/xc32/v4.21/bin/bin/../../lib/gcc/pic32mx/8.3.1/../../../../pic32mx/lib/fpu64\libc-musl.a(malloc.o)
 .xc_stack_usage.hdr
                0x0000000000000000        0xe c:/program files/microchip/xc32/v4.21/bin/bin/../../lib/gcc/pic32mx/8.3.1/../../../../pic32mx/lib/fpu64\libc-musl.a(malloc.o)
 .note.GNU-stack
                0x0000000000000000        0x0 c:/program files/microchip/xc32/v4.21/bin/bin/../../lib/gcc/pic32mx/8.3.1/../../../../pic32mx/lib/fpu64\libc-musl.a(malloc.o)
 .text          0x0000000000000000        0x0 c:/program files/microchip/xc32/v4.21/bin/bin/../../lib/gcc/pic32mx/8.3.1/../../../../pic32mx/lib/fpu64\libc-musl.a(expand_heap.o)
 .data          0x0000000000000000        0x0 c:/program files/microchip/xc32/v4.21/bin/bin/../../lib/gcc/pic32mx/8.3.1/../../../../pic32mx/lib/fpu64\libc-musl.a(expand_heap.o)
 .bss           0x0000000000000000        0x0 c:/program files/microchip/xc32/v4.21/bin/bin/../../lib/gcc/pic32mx/8.3.1/../../../../pic32mx/lib/fpu64\libc-musl.a(expand_heap.o)
 .reginfo       0x0000000000000000       0x18 c:/program files/microchip/xc32/v4.21/bin/bin/../../lib/gcc/pic32mx/8.3.1/../../../../pic32mx/lib/fpu64\libc-musl.a(expand_heap.o)
 .MIPS.abiflags
                0x0000000000000000       0x18 c:/program files/microchip/xc32/v4.21/bin/bin/../../lib/gcc/pic32mx/8.3.1/../../../../pic32mx/lib/fpu64\libc-musl.a(expand_heap.o)
 .xc_stack_usage
                0x0000000000000000       0x1b c:/program files/microchip/xc32/v4.21/bin/bin/../../lib/gcc/pic32mx/8.3.1/../../../../pic32mx/lib/fpu64\libc-musl.a(expand_heap.o)
 .text.__expand_heap
                0x0000000000000000       0x3c c:/program files/microchip/xc32/v4.21/bin/bin/../../lib/gcc/pic32mx/8.3.1/../../../../pic32mx/lib/fpu64\libc-musl.a(expand_heap.o)
 .xc_stack_usage.hdr
                0x0000000000000000        0xe c:/program files/microchip/xc32/v4.21/bin/bin/../../lib/gcc/pic32mx/8.3.1/../../../../pic32mx/lib/fpu64\libc-musl.a(expand_heap.o)
 .note.GNU-stack
                0x0000000000000000        0x0 c:/program files/microchip/xc32/v4.21/bin/bin/../../lib/gcc/pic32mx/8.3.1/../../../../pic32mx/lib/fpu64\libc-musl.a(expand_heap.o)
 .text          0x0000000000000000        0x0 c:/program files/microchip/xc32/v4.21/bin/bin/../../lib/gcc/pic32mx/8.3.1/../../../../pic32mx/lib/fpu64\libc-musl.a(__init_stdio.o)
 .data          0x0000000000000000        0x0 c:/program files/microchip/xc32/v4.21/bin/bin/../../lib/gcc/pic32mx/8.3.1/../../../../pic32mx/lib/fpu64\libc-musl.a(__init_stdio.o)
 .bss           0x0000000000000000        0x0 c:/program files/microchip/xc32/v4.21/bin/bin/../../lib/gcc/pic32mx/8.3.1/../../../../pic32mx/lib/fpu64\libc-musl.a(__init_stdio.o)
 .reginfo       0x0000000000000000       0x18 c:/program files/microchip/xc32/v4.21/bin/bin/../../lib/gcc/pic32mx/8.3.1/../../../../pic32mx/lib/fpu64\libc-musl.a(__init_stdio.o)
 .MIPS.abiflags
                0x0000000000000000       0x18 c:/program files/microchip/xc32/v4.21/bin/bin/../../lib/gcc/pic32mx/8.3.1/../../../../pic32mx/lib/fpu64\libc-musl.a(__init_stdio.o)
 .xc_stack_usage
                0x0000000000000000       0x2f c:/program files/microchip/xc32/v4.21/bin/bin/../../lib/gcc/pic32mx/8.3.1/../../../../pic32mx/lib/fpu64\libc-musl.a(__init_stdio.o)
 .text.__dummy  0x0000000000000000        0x8 c:/program files/microchip/xc32/v4.21/bin/bin/../../lib/gcc/pic32mx/8.3.1/../../../../pic32mx/lib/fpu64\libc-musl.a(__init_stdio.o)
 .text.__init_stdio
                0x0000000000000000       0x2c c:/program files/microchip/xc32/v4.21/bin/bin/../../lib/gcc/pic32mx/8.3.1/../../../../pic32mx/lib/fpu64\libc-musl.a(__init_stdio.o)
 .xc_stack_usage.hdr
                0x0000000000000000        0xe c:/program files/microchip/xc32/v4.21/bin/bin/../../lib/gcc/pic32mx/8.3.1/../../../../pic32mx/lib/fpu64\libc-musl.a(__init_stdio.o)
 .note.GNU-stack
                0x0000000000000000        0x0 c:/program files/microchip/xc32/v4.21/bin/bin/../../lib/gcc/pic32mx/8.3.1/../../../../pic32mx/lib/fpu64\libc-musl.a(__init_stdio.o)
 .text          0x0000000000000000        0x0 c:/program files/microchip/xc32/v4.21/bin/bin/../../lib/gcc/pic32mx/8.3.1/../../../../pic32mx/lib/fpu64\libc-musl.a(__io_file_needed.o)
 .data          0x0000000000000000        0x0 c:/program files/microchip/xc32/v4.21/bin/bin/../../lib/gcc/pic32mx/8.3.1/../../../../pic32mx/lib/fpu64\libc-musl.a(__io_file_needed.o)
 .bss           0x0000000000000000        0x0 c:/program files/microchip/xc32/v4.21/bin/bin/../../lib/gcc/pic32mx/8.3.1/../../../../pic32mx/lib/fpu64\libc-musl.a(__io_file_needed.o)
 .reginfo       0x0000000000000000       0x18 c:/program files/microchip/xc32/v4.21/bin/bin/../../lib/gcc/pic32mx/8.3.1/../../../../pic32mx/lib/fpu64\libc-musl.a(__io_file_needed.o)
 .MIPS.abiflags
                0x0000000000000000       0x18 c:/program files/microchip/xc32/v4.21/bin/bin/../../lib/gcc/pic32mx/8.3.1/../../../../pic32mx/lib/fpu64\libc-musl.a(__io_file_needed.o)
 .xc_stack_usage
                0x0000000000000000       0x1e c:/program files/microchip/xc32/v4.21/bin/bin/../../lib/gcc/pic32mx/8.3.1/../../../../pic32mx/lib/fpu64\libc-musl.a(__io_file_needed.o)
 .xc_stack_usage.hdr
                0x0000000000000000        0xe c:/program files/microchip/xc32/v4.21/bin/bin/../../lib/gcc/pic32mx/8.3.1/../../../../pic32mx/lib/fpu64\libc-musl.a(__io_file_needed.o)
 .note.GNU-stack
                0x0000000000000000        0x0 c:/program files/microchip/xc32/v4.21/bin/bin/../../lib/gcc/pic32mx/8.3.1/../../../../pic32mx/lib/fpu64\libc-musl.a(__io_file_needed.o)
 .text          0x0000000000000000        0x0 c:/program files/microchip/xc32/v4.21/bin/bin/../../lib/gcc/pic32mx/8.3.1/../../../../pic32mx/lib/fpu64\libc-musl.a(libc.o)
 .data          0x0000000000000000        0x0 c:/program files/microchip/xc32/v4.21/bin/bin/../../lib/gcc/pic32mx/8.3.1/../../../../pic32mx/lib/fpu64\libc-musl.a(libc.o)
 .bss           0x0000000000000000       0x50 c:/program files/microchip/xc32/v4.21/bin/bin/../../lib/gcc/pic32mx/8.3.1/../../../../pic32mx/lib/fpu64\libc-musl.a(libc.o)
 .reginfo       0x0000000000000000       0x18 c:/program files/microchip/xc32/v4.21/bin/bin/../../lib/gcc/pic32mx/8.3.1/../../../../pic32mx/lib/fpu64\libc-musl.a(libc.o)
 .MIPS.abiflags
                0x0000000000000000       0x18 c:/program files/microchip/xc32/v4.21/bin/bin/../../lib/gcc/pic32mx/8.3.1/../../../../pic32mx/lib/fpu64\libc-musl.a(libc.o)
 .xc_stack_usage.hdr
                0x0000000000000000        0xe c:/program files/microchip/xc32/v4.21/bin/bin/../../lib/gcc/pic32mx/8.3.1/../../../../pic32mx/lib/fpu64\libc-musl.a(libc.o)
 .note.GNU-stack
                0x0000000000000000        0x0 c:/program files/microchip/xc32/v4.21/bin/bin/../../lib/gcc/pic32mx/8.3.1/../../../../pic32mx/lib/fpu64\libc-musl.a(libc.o)
 .text          0x0000000000000000       0x3c c:/program files/microchip/xc32/v4.21/bin/bin/../../lib/gcc/pic32mx/8.3.1/fpu64\libgcc.a(_lshrdi3.o)
 .data          0x0000000000000000        0x0 c:/program files/microchip/xc32/v4.21/bin/bin/../../lib/gcc/pic32mx/8.3.1/fpu64\libgcc.a(_lshrdi3.o)
 .bss           0x0000000000000000        0x0 c:/program files/microchip/xc32/v4.21/bin/bin/../../lib/gcc/pic32mx/8.3.1/fpu64\libgcc.a(_lshrdi3.o)
 .reginfo       0x0000000000000000       0x18 c:/program files/microchip/xc32/v4.21/bin/bin/../../lib/gcc/pic32mx/8.3.1/fpu64\libgcc.a(_lshrdi3.o)
 .MIPS.abiflags
                0x0000000000000000       0x18 c:/program files/microchip/xc32/v4.21/bin/bin/../../lib/gcc/pic32mx/8.3.1/fpu64\libgcc.a(_lshrdi3.o)
 .xc_stack_usage
                0x0000000000000000       0x17 c:/program files/microchip/xc32/v4.21/bin/bin/../../lib/gcc/pic32mx/8.3.1/fpu64\libgcc.a(_lshrdi3.o)
 .xc_stack_usage.hdr
                0x0000000000000000        0xe c:/program files/microchip/xc32/v4.21/bin/bin/../../lib/gcc/pic32mx/8.3.1/fpu64\libgcc.a(_lshrdi3.o)
 .text          0x0000000000000000       0x3c c:/program files/microchip/xc32/v4.21/bin/bin/../../lib/gcc/pic32mx/8.3.1/fpu64\libgcc.a(_ashldi3.o)
 .data          0x0000000000000000        0x0 c:/program files/microchip/xc32/v4.21/bin/bin/../../lib/gcc/pic32mx/8.3.1/fpu64\libgcc.a(_ashldi3.o)
 .bss           0x0000000000000000        0x0 c:/program files/microchip/xc32/v4.21/bin/bin/../../lib/gcc/pic32mx/8.3.1/fpu64\libgcc.a(_ashldi3.o)
 .reginfo       0x0000000000000000       0x18 c:/program files/microchip/xc32/v4.21/bin/bin/../../lib/gcc/pic32mx/8.3.1/fpu64\libgcc.a(_ashldi3.o)
 .MIPS.abiflags
                0x0000000000000000       0x18 c:/program files/microchip/xc32/v4.21/bin/bin/../../lib/gcc/pic32mx/8.3.1/fpu64\libgcc.a(_ashldi3.o)
 .xc_stack_usage
                0x0000000000000000       0x17 c:/program files/microchip/xc32/v4.21/bin/bin/../../lib/gcc/pic32mx/8.3.1/fpu64\libgcc.a(_ashldi3.o)
 .xc_stack_usage.hdr
                0x0000000000000000        0xe c:/program files/microchip/xc32/v4.21/bin/bin/../../lib/gcc/pic32mx/8.3.1/fpu64\libgcc.a(_ashldi3.o)
 .data          0x0000000000000000        0x0 c:/program files/microchip/xc32/v4.21/bin/bin/../../lib/gcc/pic32mx/8.3.1/fpu64\libgcc.a(_umoddi3.o)
 .bss           0x0000000000000000        0x0 c:/program files/microchip/xc32/v4.21/bin/bin/../../lib/gcc/pic32mx/8.3.1/fpu64\libgcc.a(_umoddi3.o)
 .reginfo       0x0000000000000000       0x18 c:/program files/microchip/xc32/v4.21/bin/bin/../../lib/gcc/pic32mx/8.3.1/fpu64\libgcc.a(_umoddi3.o)
 .MIPS.abiflags
                0x0000000000000000       0x18 c:/program files/microchip/xc32/v4.21/bin/bin/../../lib/gcc/pic32mx/8.3.1/fpu64\libgcc.a(_umoddi3.o)
 .xc_stack_usage
                0x0000000000000000       0x17 c:/program files/microchip/xc32/v4.21/bin/bin/../../lib/gcc/pic32mx/8.3.1/fpu64\libgcc.a(_umoddi3.o)
 .xc_stack_usage.hdr
                0x0000000000000000        0xe c:/program files/microchip/xc32/v4.21/bin/bin/../../lib/gcc/pic32mx/8.3.1/fpu64\libgcc.a(_umoddi3.o)
 .text          0x0000000000000000        0x0 c:/program files/microchip/xc32/v4.21/bin/bin/../../lib/gcc/pic32mx/8.3.1/../../../../pic32mx/lib/fpu64\libpic32.a(sbrk.o)
 .data          0x0000000000000000        0x0 c:/program files/microchip/xc32/v4.21/bin/bin/../../lib/gcc/pic32mx/8.3.1/../../../../pic32mx/lib/fpu64\libpic32.a(sbrk.o)
 .bss           0x0000000000000000       0x24 c:/program files/microchip/xc32/v4.21/bin/bin/../../lib/gcc/pic32mx/8.3.1/../../../../pic32mx/lib/fpu64\libpic32.a(sbrk.o)
 .reginfo       0x0000000000000000       0x18 c:/program files/microchip/xc32/v4.21/bin/bin/../../lib/gcc/pic32mx/8.3.1/../../../../pic32mx/lib/fpu64\libpic32.a(sbrk.o)
 .MIPS.abiflags
                0x0000000000000000       0x18 c:/program files/microchip/xc32/v4.21/bin/bin/../../lib/gcc/pic32mx/8.3.1/../../../../pic32mx/lib/fpu64\libpic32.a(sbrk.o)
 .xc_stack_usage
                0x0000000000000000       0x77 c:/program files/microchip/xc32/v4.21/bin/bin/../../lib/gcc/pic32mx/8.3.1/../../../../pic32mx/lib/fpu64\libpic32.a(sbrk.o)
 .text.getpagesize
                0x0000000000000000        0x8 c:/program files/microchip/xc32/v4.21/bin/bin/../../lib/gcc/pic32mx/8.3.1/../../../../pic32mx/lib/fpu64\libpic32.a(sbrk.o)
 .text._stub_sbd_memlayout
                0x0000000000000000       0x2c c:/program files/microchip/xc32/v4.21/bin/bin/../../lib/gcc/pic32mx/8.3.1/../../../../pic32mx/lib/fpu64\libpic32.a(sbrk.o)
 .text._sbrk_init
                0x0000000000000000      0x154 c:/program files/microchip/xc32/v4.21/bin/bin/../../lib/gcc/pic32mx/8.3.1/../../../../pic32mx/lib/fpu64\libpic32.a(sbrk.o)
 .text._sbrk    0x0000000000000000       0xb0 c:/program files/microchip/xc32/v4.21/bin/bin/../../lib/gcc/pic32mx/8.3.1/../../../../pic32mx/lib/fpu64\libpic32.a(sbrk.o)
 .text.sbrk     0x0000000000000000       0x4c c:/program files/microchip/xc32/v4.21/bin/bin/../../lib/gcc/pic32mx/8.3.1/../../../../pic32mx/lib/fpu64\libpic32.a(sbrk.o)
 .xc_stack_usage.hdr
                0x0000000000000000        0xe c:/program files/microchip/xc32/v4.21/bin/bin/../../lib/gcc/pic32mx/8.3.1/../../../../pic32mx/lib/fpu64\libpic32.a(sbrk.o)
 .text          0x0000000000000000        0x0 c:/program files/microchip/xc32/v4.21/bin/bin/../../lib/gcc/pic32mx/8.3.1/../../../../pic32mx/lib/fpu64\libpic32.a(write.o)
 .data          0x0000000000000000        0x0 c:/program files/microchip/xc32/v4.21/bin/bin/../../lib/gcc/pic32mx/8.3.1/../../../../pic32mx/lib/fpu64\libpic32.a(write.o)
 .bss           0x0000000000000000        0x0 c:/program files/microchip/xc32/v4.21/bin/bin/../../lib/gcc/pic32mx/8.3.1/../../../../pic32mx/lib/fpu64\libpic32.a(write.o)
 .reginfo       0x0000000000000000       0x18 c:/program files/microchip/xc32/v4.21/bin/bin/../../lib/gcc/pic32mx/8.3.1/../../../../pic32mx/lib/fpu64\libpic32.a(write.o)
 .MIPS.abiflags
                0x0000000000000000       0x18 c:/program files/microchip/xc32/v4.21/bin/bin/../../lib/gcc/pic32mx/8.3.1/../../../../pic32mx/lib/fpu64\libpic32.a(write.o)
 .xc_stack_usage
                0x0000000000000000       0x13 c:/program files/microchip/xc32/v4.21/bin/bin/../../lib/gcc/pic32mx/8.3.1/../../../../pic32mx/lib/fpu64\libpic32.a(write.o)
 .xc_stack_usage.hdr
                0x0000000000000000        0xe c:/program files/microchip/xc32/v4.21/bin/bin/../../lib/gcc/pic32mx/8.3.1/../../../../pic32mx/lib/fpu64\libpic32.a(write.o)
 .text          0x0000000000000000        0x0 c:/program files/microchip/xc32/v4.21/bin/bin/../../lib/gcc/pic32mx/8.3.1/../../../../pic32mx/lib/fpu64\libpic32.a(lseek.o)
 .data          0x0000000000000000        0x0 c:/program files/microchip/xc32/v4.21/bin/bin/../../lib/gcc/pic32mx/8.3.1/../../../../pic32mx/lib/fpu64\libpic32.a(lseek.o)
 .bss           0x0000000000000000        0x0 c:/program files/microchip/xc32/v4.21/bin/bin/../../lib/gcc/pic32mx/8.3.1/../../../../pic32mx/lib/fpu64\libpic32.a(lseek.o)
 .reginfo       0x0000000000000000       0x18 c:/program files/microchip/xc32/v4.21/bin/bin/../../lib/gcc/pic32mx/8.3.1/../../../../pic32mx/lib/fpu64\libpic32.a(lseek.o)
 .MIPS.abiflags
                0x0000000000000000       0x18 c:/program files/microchip/xc32/v4.21/bin/bin/../../lib/gcc/pic32mx/8.3.1/../../../../pic32mx/lib/fpu64\libpic32.a(lseek.o)
 .xc_stack_usage
                0x0000000000000000       0x13 c:/program files/microchip/xc32/v4.21/bin/bin/../../lib/gcc/pic32mx/8.3.1/../../../../pic32mx/lib/fpu64\libpic32.a(lseek.o)
 .xc_stack_usage.hdr
                0x0000000000000000        0xe c:/program files/microchip/xc32/v4.21/bin/bin/../../lib/gcc/pic32mx/8.3.1/../../../../pic32mx/lib/fpu64\libpic32.a(lseek.o)
 .text          0x0000000000000000        0x0 c:/program files/microchip/xc32/v4.21/bin/bin/../../lib/gcc/pic32mx/8.3.1/../../../../pic32mx/lib/fpu64\libpic32.a(close.o)
 .data          0x0000000000000000        0x0 c:/program files/microchip/xc32/v4.21/bin/bin/../../lib/gcc/pic32mx/8.3.1/../../../../pic32mx/lib/fpu64\libpic32.a(close.o)
 .bss           0x0000000000000000        0x0 c:/program files/microchip/xc32/v4.21/bin/bin/../../lib/gcc/pic32mx/8.3.1/../../../../pic32mx/lib/fpu64\libpic32.a(close.o)
 .reginfo       0x0000000000000000       0x18 c:/program files/microchip/xc32/v4.21/bin/bin/../../lib/gcc/pic32mx/8.3.1/../../../../pic32mx/lib/fpu64\libpic32.a(close.o)
 .MIPS.abiflags
                0x0000000000000000       0x18 c:/program files/microchip/xc32/v4.21/bin/bin/../../lib/gcc/pic32mx/8.3.1/../../../../pic32mx/lib/fpu64\libpic32.a(close.o)
 .xc_stack_usage
                0x0000000000000000       0x13 c:/program files/microchip/xc32/v4.21/bin/bin/../../lib/gcc/pic32mx/8.3.1/../../../../pic32mx/lib/fpu64\libpic32.a(close.o)
 .xc_stack_usage.hdr
                0x0000000000000000        0xe c:/program files/microchip/xc32/v4.21/bin/bin/../../lib/gcc/pic32mx/8.3.1/../../../../pic32mx/lib/fpu64\libpic32.a(close.o)
 .text          0x0000000000000000        0x0 c:/program files/microchip/xc32/v4.21/bin/bin/../../lib/gcc/pic32mx/8.3.1/../../../../pic32mx/lib/fpu64\libpic32.a(errno.o)
 .data          0x0000000000000000        0x0 c:/program files/microchip/xc32/v4.21/bin/bin/../../lib/gcc/pic32mx/8.3.1/../../../../pic32mx/lib/fpu64\libpic32.a(errno.o)
 .bss           0x0000000000000000        0x0 c:/program files/microchip/xc32/v4.21/bin/bin/../../lib/gcc/pic32mx/8.3.1/../../../../pic32mx/lib/fpu64\libpic32.a(errno.o)
 .reginfo       0x0000000000000000       0x18 c:/program files/microchip/xc32/v4.21/bin/bin/../../lib/gcc/pic32mx/8.3.1/../../../../pic32mx/lib/fpu64\libpic32.a(errno.o)
 .MIPS.abiflags
                0x0000000000000000       0x18 c:/program files/microchip/xc32/v4.21/bin/bin/../../lib/gcc/pic32mx/8.3.1/../../../../pic32mx/lib/fpu64\libpic32.a(errno.o)
 .xc_stack_usage.hdr
                0x0000000000000000        0xe c:/program files/microchip/xc32/v4.21/bin/bin/../../lib/gcc/pic32mx/8.3.1/../../../../pic32mx/lib/fpu64\libpic32.a(errno.o)

Memory Configuration

Name             Origin             Length             Attributes
kseg0_program_mem 0x000000009d000000 0x0000000000200000 xr
kseg0_boot_mem   0x000000009fc004b0 0x0000000000000000
kseg1_boot_mem   0x00000000bfc00000 0x0000000000000480
kseg1_boot_mem_4B0 0x00000000bfc004b0 0x000000000000fa50
config_BFC0FF40  0x00000000bfc0ff40 0x0000000000000004
config_BFC0FF44  0x00000000bfc0ff44 0x0000000000000004
config_BFC0FF48  0x00000000bfc0ff48 0x0000000000000004
config_BFC0FF4C  0x00000000bfc0ff4c 0x0000000000000004
config_BFC0FF50  0x00000000bfc0ff50 0x0000000000000004
config_BFC0FF54  0x00000000bfc0ff54 0x0000000000000004
config_BFC0FF58  0x00000000bfc0ff58 0x0000000000000004
config_BFC0FF5C  0x00000000bfc0ff5c 0x0000000000000004
config_BFC0FF60  0x00000000bfc0ff60 0x0000000000000004
config_BFC0FF64  0x00000000bfc0ff64 0x0000000000000004
config_BFC0FF68  0x00000000bfc0ff68 0x0000000000000004
config_BFC0FF6C  0x00000000bfc0ff6c 0x0000000000000004
config_BFC0FF70  0x00000000bfc0ff70 0x0000000000000004
config_BFC0FF74  0x00000000bfc0ff74 0x0000000000000004
config_BFC0FF78  0x00000000bfc0ff78 0x0000000000000004
config_BFC0FF7C  0x00000000bfc0ff7c 0x0000000000000004
config_BFC0FFC0  0x00000000bfc0ffc0 0x0000000000000004
config_BFC0FFC4  0x00000000bfc0ffc4 0x0000000000000004
config_BFC0FFC8  0x00000000bfc0ffc8 0x0000000000000004
config_BFC0FFCC  0x00000000bfc0ffcc 0x0000000000000004
config_BFC0FFD0  0x00000000bfc0ffd0 0x0000000000000004
config_BFC0FFD4  0x00000000bfc0ffd4 0x0000000000000004
config_BFC0FFD8  0x00000000bfc0ffd8 0x0000000000000004
config_BFC0FFDC  0x00000000bfc0ffdc 0x0000000000000004
config_BFC0FFE0  0x00000000bfc0ffe0 0x0000000000000004
config_BFC0FFE4  0x00000000bfc0ffe4 0x0000000000000004
config_BFC0FFE8  0x00000000bfc0ffe8 0x0000000000000004
config_BFC0FFEC  0x00000000bfc0ffec 0x0000000000000004
config_BFC0FFF0  0x00000000bfc0fff0 0x0000000000000004
config_BFC0FFF4  0x00000000bfc0fff4 0x0000000000000004
config_BFC0FFF8  0x00000000bfc0fff8 0x0000000000000004
config_BFC0FFFC  0x00000000bfc0fffc 0x0000000000000004
lowerbootaliaslastpage 0x00000000bfc10000 0x0000000000004000
upperbootalias   0x00000000bfc20000 0x000000000000ff00
config_BFC2FF40  0x00000000bfc2ff40 0x0000000000000004
config_BFC2FF44  0x00000000bfc2ff44 0x0000000000000004
config_BFC2FF48  0x00000000bfc2ff48 0x0000000000000004
config_BFC2FF4C  0x00000000bfc2ff4c 0x0000000000000004
config_BFC2FF50  0x00000000bfc2ff50 0x0000000000000004
config_BFC2FF54  0x00000000bfc2ff54 0x0000000000000004
config_BFC2FF58  0x00000000bfc2ff58 0x0000000000000004
config_BFC2FF5C  0x00000000bfc2ff5c 0x0000000000000004
config_BFC2FF60  0x00000000bfc2ff60 0x0000000000000004
config_BFC2FF64  0x00000000bfc2ff64 0x0000000000000004
config_BFC2FF68  0x00000000bfc2ff68 0x0000000000000004
config_BFC2FF6C  0x00000000bfc2ff6c 0x0000000000000004
config_BFC2FF70  0x00000000bfc2ff70 0x0000000000000004
config_BFC2FF74  0x00000000bfc2ff74 0x0000000000000004
config_BFC2FF78  0x00000000bfc2ff78 0x0000000000000004
config_BFC2FF7C  0x00000000bfc2ff7c 0x0000000000000004
config_BFC2FFC0  0x00000000bfc2ffc0 0x0000000000000004
config_BFC2FFC4  0x00000000bfc2ffc4 0x0000000000000004
config_BFC2FFC8  0x00000000bfc2ffc8 0x0000000000000004
config_BFC2FFCC  0x00000000bfc2ffcc 0x0000000000000004
config_BFC2FFD0  0x00000000bfc2ffd0 0x0000000000000004
config_BFC2FFD4  0x00000000bfc2ffd4 0x0000000000000004
config_BFC2FFD8  0x00000000bfc2ffd8 0x0000000000000004
config_BFC2FFDC  0x00000000bfc2ffdc 0x0000000000000004
config_BFC2FFE0  0x00000000bfc2ffe0 0x0000000000000004
config_BFC2FFE4  0x00000000bfc2ffe4 0x0000000000000004
config_BFC2FFE8  0x00000000bfc2ffe8 0x0000000000000004
config_BFC2FFEC  0x00000000bfc2ffec 0x0000000000000004
config_BFC2FFF0  0x00000000bfc2fff0 0x0000000000000004
config_BFC2FFF4  0x00000000bfc2fff4 0x0000000000000004
config_BFC2FFF8  0x00000000bfc2fff8 0x0000000000000004
config_BFC2FFFC  0x00000000bfc2fffc 0x0000000000000004
upperbootaliaslastpage 0x00000000bfc30000 0x0000000000004000
boot1            0x00000000bfc40000 0x000000000000ff00
config_BFC4FF40  0x00000000bfc4ff40 0x0000000000000004
config_BFC4FF44  0x00000000bfc4ff44 0x0000000000000004
config_BFC4FF48  0x00000000bfc4ff48 0x0000000000000004
config_BFC4FF4C  0x00000000bfc4ff4c 0x0000000000000004
config_BFC4FF50  0x00000000bfc4ff50 0x0000000000000004
config_BFC4FF54  0x00000000bfc4ff54 0x0000000000000004
config_BFC4FF58  0x00000000bfc4ff58 0x0000000000000004
config_BFC4FF5C  0x00000000bfc4ff5c 0x0000000000000004
config_BFC4FF60  0x00000000bfc4ff60 0x0000000000000004
config_BFC4FF64  0x00000000bfc4ff64 0x0000000000000004
config_BFC4FF68  0x00000000bfc4ff68 0x0000000000000004
config_BFC4FF6C  0x00000000bfc4ff6c 0x0000000000000004
config_BFC4FF70  0x00000000bfc4ff70 0x0000000000000004
config_BFC4FF74  0x00000000bfc4ff74 0x0000000000000004
config_BFC4FF78  0x00000000bfc4ff78 0x0000000000000004
config_BFC4FF7C  0x00000000bfc4ff7c 0x0000000000000004
config_BFC4FFC0  0x00000000bfc4ffc0 0x0000000000000004
config_BFC4FFC4  0x00000000bfc4ffc4 0x0000000000000004
config_BFC4FFC8  0x00000000bfc4ffc8 0x0000000000000004
config_BFC4FFCC  0x00000000bfc4ffcc 0x0000000000000004
config_BFC4FFD0  0x00000000bfc4ffd0 0x0000000000000004
config_BFC4FFD4  0x00000000bfc4ffd4 0x0000000000000004
config_BFC4FFD8  0x00000000bfc4ffd8 0x0000000000000004
config_BFC4FFDC  0x00000000bfc4ffdc 0x0000000000000004
config_BFC4FFE0  0x00000000bfc4ffe0 0x0000000000000004
config_BFC4FFE4  0x00000000bfc4ffe4 0x0000000000000004
config_BFC4FFE8  0x00000000bfc4ffe8 0x0000000000000004
config_BFC4FFEC  0x00000000bfc4ffec 0x0000000000000004
config_BFC4FFF0  0x00000000bfc4fff0 0x0000000000000004
config_BFC4FFF4  0x00000000bfc4fff4 0x0000000000000004
config_BFC4FFF8  0x00000000bfc4fff8 0x0000000000000004
config_BFC4FFFC  0x00000000bfc4fffc 0x0000000000000004
boot1lastpage    0x00000000bfc50000 0x0000000000004000
config_BFC54000  0x00000000bfc54000 0x0000000000000004
config_BFC54004  0x00000000bfc54004 0x0000000000000004
config_BFC54008  0x00000000bfc54008 0x0000000000000004
config_BFC5400C  0x00000000bfc5400c 0x0000000000000004
config_BFC54010  0x00000000bfc54010 0x0000000000000004
config_BFC5401C  0x00000000bfc5401c 0x0000000000000004
config_BFC54020  0x00000000bfc54020 0x0000000000000004
config_BFC54024  0x00000000bfc54024 0x0000000000000004
boot2            0x00000000bfc60000 0x000000000000ff00
config_BFC6FF40  0x00000000bfc6ff40 0x0000000000000004
config_BFC6FF44  0x00000000bfc6ff44 0x0000000000000004
config_BFC6FF48  0x00000000bfc6ff48 0x0000000000000004
config_BFC6FF4C  0x00000000bfc6ff4c 0x0000000000000004
config_BFC6FF50  0x00000000bfc6ff50 0x0000000000000004
config_BFC6FF54  0x00000000bfc6ff54 0x0000000000000004
config_BFC6FF58  0x00000000bfc6ff58 0x0000000000000004
config_BFC6FF5C  0x00000000bfc6ff5c 0x0000000000000004
config_BFC6FF60  0x00000000bfc6ff60 0x0000000000000004
config_BFC6FF64  0x00000000bfc6ff64 0x0000000000000004
config_BFC6FF68  0x00000000bfc6ff68 0x0000000000000004
config_BFC6FF6C  0x00000000bfc6ff6c 0x0000000000000004
config_BFC6FF70  0x00000000bfc6ff70 0x0000000000000004
config_BFC6FF74  0x00000000bfc6ff74 0x0000000000000004
config_BFC6FF78  0x00000000bfc6ff78 0x0000000000000004
config_BFC6FF7C  0x00000000bfc6ff7c 0x0000000000000004
config_BFC6FFC0  0x00000000bfc6ffc0 0x0000000000000004
config_BFC6FFC4  0x00000000bfc6ffc4 0x0000000000000004
config_BFC6FFC8  0x00000000bfc6ffc8 0x0000000000000004
config_BFC6FFCC  0x00000000bfc6ffcc 0x0000000000000004
config_BFC6FFD0  0x00000000bfc6ffd0 0x0000000000000004
config_BFC6FFD4  0x00000000bfc6ffd4 0x0000000000000004
config_BFC6FFD8  0x00000000bfc6ffd8 0x0000000000000004
config_BFC6FFDC  0x00000000bfc6ffdc 0x0000000000000004
config_BFC6FFE0  0x00000000bfc6ffe0 0x0000000000000004
config_BFC6FFE4  0x00000000bfc6ffe4 0x0000000000000004
config_BFC6FFE8  0x00000000bfc6ffe8 0x0000000000000004
config_BFC6FFEC  0x00000000bfc6ffec 0x0000000000000004
config_BFC6FFF0  0x00000000bfc6fff0 0x0000000000000004
config_BFC6FFF4  0x00000000bfc6fff4 0x0000000000000004
config_BFC6FFF8  0x00000000bfc6fff8 0x0000000000000004
config_BFC6FFFC  0x00000000bfc6fffc 0x0000000000000004
boot2lastpage    0x00000000bfc70000 0x0000000000004000
kseg0_data_mem   0x0000000080000000 0x0000000000080000 w !x
sfrs             0x00000000bf800000 0x0000000000100000
configsfrs_BFC0FF40 0x00000000bfc0ff40 0x0000000000000040
configsfrs_BFC0FFC0 0x00000000bfc0ffc0 0x0000000000000040
configsfrs_BFC2FF40 0x00000000bfc2ff40 0x0000000000000040
configsfrs_BFC2FFC0 0x00000000bfc2ffc0 0x0000000000000040
configsfrs_BFC4FF40 0x00000000bfc4ff40 0x0000000000000040
configsfrs_BFC4FFC0 0x00000000bfc4ffc0 0x0000000000000040
configsfrs_BFC54000 0x00000000bfc54000 0x0000000000000020
configsfrs_BFC6FF40 0x00000000bfc6ff40 0x0000000000000040
configsfrs_BFC6FFC0 0x00000000bfc6ffc0 0x0000000000000040
kseg2_ebi_data_mem 0x00000000c0000000 0x0000000004000000
kseg2_sqi_data_mem 0x00000000d0000000 0x0000000004000000
kseg3_ebi_data_mem 0x00000000e0000000 0x0000000004000000
kseg3_sqi_data_mem 0x00000000f0000000 0x0000000004000000
*default*        0x0000000000000000 0xffffffffffffffff

Linker script and memory map

LOAD c:/program files/microchip/xc32/v4.21/bin/bin/../../lib/gcc/pic32mx/8.3.1/../../../../pic32mx/lib/fpu64\debug-exception-return.o
LOAD build/pic32mzef_c2_ak4954/production/_ext/212299867/wav_dec.o
LOAD build/pic32mzef_c2_ak4954/production/_ext/1856562345/drv_ak4954.o
LOAD build/pic32mzef_c2_ak4954/production/_ext/450163651/drv_i2s.o
LOAD build/pic32mzef_c2_ak4954/production/_ext/563155524/plib_i2s2.o
LOAD build/pic32mzef_c2_ak4954/production/_ext/1477346291/bsp.o
LOAD build/pic32mzef_c2_ak4954/production/_ext/1337057836/drv_i2c.o
LOAD build/pic32mzef_c2_ak4954/production/_ext/1500991179/drv_sdspi.o
LOAD build/pic32mzef_c2_ak4954/production/_ext/1500991179/drv_sdspi_plib_interface.o
LOAD build/pic32mzef_c2_ak4954/production/_ext/1500991179/drv_sdspi_file_system.o
LOAD build/pic32mzef_c2_ak4954/production/_ext/617362437/plib_cache.o
LOAD build/pic32mzef_c2_ak4954/production/_ext/617362437/plib_cache_pic32mz.o
LOAD build/pic32mzef_c2_ak4954/production/_ext/1435277349/plib_clk.o
LOAD build/pic32mzef_c2_ak4954/production/_ext/131824383/plib_coretimer.o
LOAD build/pic32mzef_c2_ak4954/production/_ext/1543894318/plib_dmac.o
LOAD build/pic32mzef_c2_ak4954/production/_ext/1543855630/plib_evic.o
LOAD build/pic32mzef_c2_ak4954/production/_ext/1543801802/plib_gpio.o
LOAD build/pic32mzef_c2_ak4954/production/_ext/232538270/plib_i2c1_master.o
LOAD build/pic32mzef_c2_ak4954/production/_ext/603446335/plib_spi1_master.o
LOAD build/pic32mzef_c2_ak4954/production/_ext/1543398859/plib_uart6.o
LOAD build/pic32mzef_c2_ak4954/production/_ext/1888667843/xc32_monitor.o
LOAD build/pic32mzef_c2_ak4954/production/_ext/839150702/sys_cache.o
LOAD build/pic32mzef_c2_ak4954/production/_ext/2050519836/sys_dma.o
LOAD build/pic32mzef_c2_ak4954/production/_ext/1867241316/ff.o
LOAD build/pic32mzef_c2_ak4954/production/_ext/1867241316/ffunicode.o
LOAD build/pic32mzef_c2_ak4954/production/_ext/1892335699/diskio.o
LOAD build/pic32mzef_c2_ak4954/production/_ext/344840758/sys_fs.o
LOAD build/pic32mzef_c2_ak4954/production/_ext/344840758/sys_fs_media_manager.o
LOAD build/pic32mzef_c2_ak4954/production/_ext/344840758/sys_fs_fat_interface.o
LOAD build/pic32mzef_c2_ak4954/production/_ext/386225584/sys_int.o
LOAD build/pic32mzef_c2_ak4954/production/_ext/784026422/sys_time.o
LOAD build/pic32mzef_c2_ak4954/production/_ext/79412797/initialization.o
LOAD build/pic32mzef_c2_ak4954/production/_ext/79412797/interrupts.o
LOAD build/pic32mzef_c2_ak4954/production/_ext/79412797/exceptions.o
LOAD build/pic32mzef_c2_ak4954/production/_ext/79412797/tasks.o
LOAD build/pic32mzef_c2_ak4954/production/_ext/1360937237/app_sdcard_audio_task.o
LOAD build/pic32mzef_c2_ak4954/production/_ext/1360937237/decoder.o
LOAD build/pic32mzef_c2_ak4954/production/_ext/1360937237/main.o
LOAD build/pic32mzef_c2_ak4954/production/_ext/1360937237/app.o
                0x0000000000000001                __MPLAB_BUILD = 0x1
                0x0000000000000400                PROVIDE (_min_stack_size = 0x400)
START GROUP
LOAD vector_offset_init.o
END GROUP
                0x0000000000000001                PROVIDE (_vector_spacing = 0x1)
                0x000000009d000000                PROVIDE (_ebase_address = 0x9d000000)
                0x00000000bfc00000                _RESET_ADDR = 0xbfc00000
                0x00000000bfc00380                _BEV_EXCPT_ADDR = 0xbfc00380
                0x00000000bfc00480                _DBG_EXCPT_ADDR = 0xbfc00480
                0x000000009d000000                _SIMPLE_TLB_REFILL_EXCPT_ADDR = (_ebase_address + 0x0)
                0x000000009d000100                _CACHE_ERR_EXCPT_ADDR = (_ebase_address + 0x100)
                0x000000009d000180                _GEN_EXCPT_ADDR = (_ebase_address + 0x180)

.config_BFC0FF40
 *(.config_BFC0FF40)

.config_BFC0FF44
 *(.config_BFC0FF44)

.config_BFC0FF48
 *(.config_BFC0FF48)

.config_BFC0FF4C
 *(.config_BFC0FF4C)

.config_BFC0FF50
 *(.config_BFC0FF50)

.config_BFC0FF54
 *(.config_BFC0FF54)

.config_BFC0FF58
 *(.config_BFC0FF58)

.config_BFC0FF5C
 *(.config_BFC0FF5C)

.config_BFC0FF60
 *(.config_BFC0FF60)

.config_BFC0FF64
 *(.config_BFC0FF64)

.config_BFC0FF68
 *(.config_BFC0FF68)

.config_BFC0FF6C
 *(.config_BFC0FF6C)

.config_BFC0FF70
 *(.config_BFC0FF70)

.config_BFC0FF74
 *(.config_BFC0FF74)

.config_BFC0FF78
 *(.config_BFC0FF78)

.config_BFC0FF7C
 *(.config_BFC0FF7C)

.config_BFC0FFC0
                0x00000000bfc0ffc0        0x4
 *(.config_BFC0FFC0)
 .config_BFC0FFC0
                0x00000000bfc0ffc0        0x4 build/pic32mzef_c2_ak4954/production/_ext/79412797/initialization.o
                0x00000000bfc0ffc0                __config_BFC0FFC0

.config_BFC0FFC4
                0x00000000bfc0ffc4        0x4
 *(.config_BFC0FFC4)
 .config_BFC0FFC4
                0x00000000bfc0ffc4        0x4 build/pic32mzef_c2_ak4954/production/_ext/79412797/initialization.o
                0x00000000bfc0ffc4                __config_BFC0FFC4

.config_BFC0FFC8
                0x00000000bfc0ffc8        0x4
 *(.config_BFC0FFC8)
 .config_BFC0FFC8
                0x00000000bfc0ffc8        0x4 build/pic32mzef_c2_ak4954/production/_ext/79412797/initialization.o
                0x00000000bfc0ffc8                __config_BFC0FFC8

.config_BFC0FFCC
                0x00000000bfc0ffcc        0x4
 *(.config_BFC0FFCC)
 .config_BFC0FFCC
                0x00000000bfc0ffcc        0x4 build/pic32mzef_c2_ak4954/production/_ext/79412797/initialization.o
                0x00000000bfc0ffcc                __config_BFC0FFCC

.config_BFC0FFD0
 *(.config_BFC0FFD0)

.config_BFC0FFD4
 *(.config_BFC0FFD4)

.config_BFC0FFD8
 *(.config_BFC0FFD8)

.config_BFC0FFDC
                0x00000000bfc0ffdc        0x4
 *(.config_BFC0FFDC)
 .config_BFC0FFDC
                0x00000000bfc0ffdc        0x4 build/pic32mzef_c2_ak4954/production/_ext/79412797/initialization.o
                0x00000000bfc0ffdc                __config_BFC0FFDC

.config_BFC0FFE0
 *(.config_BFC0FFE0)

.config_BFC0FFE4
 *(.config_BFC0FFE4)

.config_BFC0FFE8
 *(.config_BFC0FFE8)

.config_BFC0FFEC
 *(.config_BFC0FFEC)

.config_BFC0FFF0
                0x00000000bfc0fff0        0x4
 *(.config_BFC0FFF0)
 .config_BFC0FFF0
                0x00000000bfc0fff0        0x4 build/pic32mzef_c2_ak4954/production/_ext/79412797/initialization.o
                0x00000000bfc0fff0                __config_BFC0FFF0

.config_BFC0FFF4
 *(.config_BFC0FFF4)

.config_BFC0FFF8
 *(.config_BFC0FFF8)

.config_BFC0FFFC
 *(.config_BFC0FFFC)

.config_BFC2FF40
 *(.config_BFC2FF40)

.config_BFC2FF44
 *(.config_BFC2FF44)

.config_BFC2FF48
 *(.config_BFC2FF48)

.config_BFC2FF4C
 *(.config_BFC2FF4C)

.config_BFC2FF50
 *(.config_BFC2FF50)

.config_BFC2FF54
 *(.config_BFC2FF54)

.config_BFC2FF58
 *(.config_BFC2FF58)

.config_BFC2FF5C
 *(.config_BFC2FF5C)

.config_BFC2FF60
 *(.config_BFC2FF60)

.config_BFC2FF64
 *(.config_BFC2FF64)

.config_BFC2FF68
 *(.config_BFC2FF68)

.config_BFC2FF6C
 *(.config_BFC2FF6C)

.config_BFC2FF70
 *(.config_BFC2FF70)

.config_BFC2FF74
 *(.config_BFC2FF74)

.config_BFC2FF78
 *(.config_BFC2FF78)

.config_BFC2FF7C
 *(.config_BFC2FF7C)

.config_BFC2FFC0
 *(.config_BFC2FFC0)

.config_BFC2FFC4
 *(.config_BFC2FFC4)

.config_BFC2FFC8
 *(.config_BFC2FFC8)

.config_BFC2FFCC
 *(.config_BFC2FFCC)

.config_BFC2FFD0
 *(.config_BFC2FFD0)

.config_BFC2FFD4
 *(.config_BFC2FFD4)

.config_BFC2FFD8
 *(.config_BFC2FFD8)

.config_BFC2FFDC
 *(.config_BFC2FFDC)

.config_BFC2FFE0
 *(.config_BFC2FFE0)

.config_BFC2FFE4
 *(.config_BFC2FFE4)

.config_BFC2FFE8
 *(.config_BFC2FFE8)

.config_BFC2FFEC
 *(.config_BFC2FFEC)

.config_BFC2FFF0
 *(.config_BFC2FFF0)

.config_BFC2FFF4
 *(.config_BFC2FFF4)

.config_BFC2FFF8
 *(.config_BFC2FFF8)

.config_BFC2FFFC
 *(.config_BFC2FFFC)

.config_BFC4FF40
 *(.config_BFC4FF40)

.config_BFC4FF44
 *(.config_BFC4FF44)

.config_BFC4FF48
 *(.config_BFC4FF48)

.config_BFC4FF4C
 *(.config_BFC4FF4C)

.config_BFC4FF50
 *(.config_BFC4FF50)

.config_BFC4FF54
 *(.config_BFC4FF54)

.config_BFC4FF58
 *(.config_BFC4FF58)

.config_BFC4FF5C
 *(.config_BFC4FF5C)

.config_BFC4FF60
 *(.config_BFC4FF60)

.config_BFC4FF64
 *(.config_BFC4FF64)

.config_BFC4FF68
 *(.config_BFC4FF68)

.config_BFC4FF6C
 *(.config_BFC4FF6C)

.config_BFC4FF70
 *(.config_BFC4FF70)

.config_BFC4FF74
 *(.config_BFC4FF74)

.config_BFC4FF78
 *(.config_BFC4FF78)

.config_BFC4FF7C
 *(.config_BFC4FF7C)

.config_BFC4FFC0
 *(.config_BFC4FFC0)

.config_BFC4FFC4
 *(.config_BFC4FFC4)

.config_BFC4FFC8
 *(.config_BFC4FFC8)

.config_BFC4FFCC
 *(.config_BFC4FFCC)

.config_BFC4FFD0
 *(.config_BFC4FFD0)

.config_BFC4FFD4
 *(.config_BFC4FFD4)

.config_BFC4FFD8
 *(.config_BFC4FFD8)

.config_BFC4FFDC
 *(.config_BFC4FFDC)

.config_BFC4FFE0
 *(.config_BFC4FFE0)

.config_BFC4FFE4
 *(.config_BFC4FFE4)

.config_BFC4FFE8
 *(.config_BFC4FFE8)

.config_BFC4FFEC
 *(.config_BFC4FFEC)

.config_BFC4FFF0
 *(.config_BFC4FFF0)

.config_BFC4FFF4
 *(.config_BFC4FFF4)

.config_BFC4FFF8
 *(.config_BFC4FFF8)

.config_BFC4FFFC
 *(.config_BFC4FFFC)

.config_BFC54000
 *(.config_BFC54000)

.config_BFC54004
 *(.config_BFC54004)

.config_BFC54008
 *(.config_BFC54008)

.config_BFC5400C
 *(.config_BFC5400C)

.config_BFC54010
 *(.config_BFC54010)

.config_BFC5401C
 *(.config_BFC5401C)

.config_BFC54020
 *(.config_BFC54020)

.config_BFC54024
 *(.config_BFC54024)

.config_BFC6FF40
 *(.config_BFC6FF40)

.config_BFC6FF44
 *(.config_BFC6FF44)

.config_BFC6FF48
 *(.config_BFC6FF48)

.config_BFC6FF4C
 *(.config_BFC6FF4C)

.config_BFC6FF50
 *(.config_BFC6FF50)

.config_BFC6FF54
 *(.config_BFC6FF54)

.config_BFC6FF58
 *(.config_BFC6FF58)

.config_BFC6FF5C
 *(.config_BFC6FF5C)

.config_BFC6FF60
 *(.config_BFC6FF60)

.config_BFC6FF64
 *(.config_BFC6FF64)

.config_BFC6FF68
 *(.config_BFC6FF68)

.config_BFC6FF6C
 *(.config_BFC6FF6C)

.config_BFC6FF70
 *(.config_BFC6FF70)

.config_BFC6FF74
 *(.config_BFC6FF74)

.config_BFC6FF78
 *(.config_BFC6FF78)

.config_BFC6FF7C
 *(.config_BFC6FF7C)

.config_BFC6FFC0
 *(.config_BFC6FFC0)

.config_BFC6FFC4
 *(.config_BFC6FFC4)

.config_BFC6FFC8
 *(.config_BFC6FFC8)

.config_BFC6FFCC
 *(.config_BFC6FFCC)

.config_BFC6FFD0
 *(.config_BFC6FFD0)

.config_BFC6FFD4
 *(.config_BFC6FFD4)

.config_BFC6FFD8
 *(.config_BFC6FFD8)

.config_BFC6FFDC
 *(.config_BFC6FFDC)

.config_BFC6FFE0
 *(.config_BFC6FFE0)

.config_BFC6FFE4
 *(.config_BFC6FFE4)

.config_BFC6FFE8
 *(.config_BFC6FFE8)

.config_BFC6FFEC
 *(.config_BFC6FFEC)

.config_BFC6FFF0
 *(.config_BFC6FFF0)

.config_BFC6FFF4
 *(.config_BFC6FFF4)

.config_BFC6FFF8
 *(.config_BFC6FFF8)

.config_BFC6FFFC
 *(.config_BFC6FFFC)

.reset          0x00000000bfc00000      0x1c4
 *(.reset)
 .reset         0x00000000bfc00000       0x18 C:\Users\spreg\AppData\Local\Temp\ccUeMUPf.o
                0x00000000bfc00000                _reset
 *(.reset.startup)
 .reset.startup
                0x00000000bfc00018      0x1ac C:\Users\spreg\AppData\Local\Temp\ccUeMUPf.o
                0x00000000bfc00018                _startup

.bev_excpt      0x00000000bfc00380       0x10
 *(.bev_handler)
 .bev_handler   0x00000000bfc00380       0x10 C:\Users\spreg\AppData\Local\Temp\ccUeMUPf.o

.cache_init     0x00000000bfc004b0      0x1c0
 *(.cache_init)
 *(.cache_init.*)
 .cache_init.cache
                0x00000000bfc004b0       0xc0 c:/program files/microchip/xc32/v4.21/bin/bin/../../lib/gcc/pic32mx/8.3.1/../../../../pic32mx/lib/fpu64\libpic32.a(pic32_init_cache.o)
 .cache_init.pic32_init_cache
                0x00000000bfc00570      0x100 c:/program files/microchip/xc32/v4.21/bin/bin/../../lib/gcc/pic32mx/8.3.1/../../../../pic32mx/lib/fpu64\libpic32.a(pic32_init_cache.o)
                0x00000000bfc00570                __pic32_init_cache

.simple_tlb_refill_excpt
                0x000000009d000000       0x10
 *(.simple_tlb_refill_vector)
 .simple_tlb_refill_vector
                0x000000009d000000       0x10 C:\Users\spreg\AppData\Local\Temp\ccUeMUPf.o

.cache_err_excpt
                0x000000009d000100       0x10
 *(.cache_err_vector)
 .cache_err_vector
                0x000000009d000100       0x10 C:\Users\spreg\AppData\Local\Temp\ccUeMUPf.o

.app_excpt      0x000000009d000180       0x10
 *(.gen_handler)
 .gen_handler   0x000000009d000180       0x10 C:\Users\spreg\AppData\Local\Temp\ccUeMUPf.o

.vectors        0x000000009d000200       0x80
                0x000000009d000200                . = ALIGN (0x4)
                0x0000000000000200                __vector_offset_0 = DEFINED (__vector_dispatch_0)?(. - _ebase_address):__vector_offset_default
 *(.vector_0)
 .vector_0      0x000000009d000200        0x8 build/pic32mzef_c2_ak4954/production/_ext/79412797/interrupts.o
                0x000000009d000200                __vector_dispatch_0
                0x000000009d000208                . = ALIGN (0x4)
                0x0000000000000238                __vector_offset_1 = DEFINED (__vector_dispatch_1)?(. - _ebase_address):__vector_offset_default
 *(.vector_1)
                0x000000009d000208                . = ALIGN (0x4)
                0x0000000000000238                __vector_offset_2 = DEFINED (__vector_dispatch_2)?(. - _ebase_address):__vector_offset_default
 *(.vector_2)
                0x000000009d000208                . = ALIGN (0x4)
                0x0000000000000238                __vector_offset_3 = DEFINED (__vector_dispatch_3)?(. - _ebase_address):__vector_offset_default
 *(.vector_3)
                0x000000009d000208                . = ALIGN (0x4)
                0x0000000000000238                __vector_offset_4 = DEFINED (__vector_dispatch_4)?(. - _ebase_address):__vector_offset_default
 *(.vector_4)
                0x000000009d000208                . = ALIGN (0x4)
                0x0000000000000238                __vector_offset_5 = DEFINED (__vector_dispatch_5)?(. - _ebase_address):__vector_offset_default
 *(.vector_5)
                0x000000009d000208                . = ALIGN (0x4)
                0x0000000000000238                __vector_offset_6 = DEFINED (__vector_dispatch_6)?(. - _ebase_address):__vector_offset_default
 *(.vector_6)
                0x000000009d000208                . = ALIGN (0x4)
                0x0000000000000238                __vector_offset_7 = DEFINED (__vector_dispatch_7)?(. - _ebase_address):__vector_offset_default
 *(.vector_7)
                0x000000009d000208                . = ALIGN (0x4)
                0x0000000000000238                __vector_offset_8 = DEFINED (__vector_dispatch_8)?(. - _ebase_address):__vector_offset_default
 *(.vector_8)
                0x000000009d000208                . = ALIGN (0x4)
                0x0000000000000238                __vector_offset_9 = DEFINED (__vector_dispatch_9)?(. - _ebase_address):__vector_offset_default
 *(.vector_9)
                0x000000009d000208                . = ALIGN (0x4)
                0x0000000000000238                __vector_offset_10 = DEFINED (__vector_dispatch_10)?(. - _ebase_address):__vector_offset_default
 *(.vector_10)
                0x000000009d000208                . = ALIGN (0x4)
                0x0000000000000238                __vector_offset_11 = DEFINED (__vector_dispatch_11)?(. - _ebase_address):__vector_offset_default
 *(.vector_11)
                0x000000009d000208                . = ALIGN (0x4)
                0x0000000000000238                __vector_offset_12 = DEFINED (__vector_dispatch_12)?(. - _ebase_address):__vector_offset_default
 *(.vector_12)
                0x000000009d000208                . = ALIGN (0x4)
                0x0000000000000238                __vector_offset_13 = DEFINED (__vector_dispatch_13)?(. - _ebase_address):__vector_offset_default
 *(.vector_13)
                0x000000009d000208                . = ALIGN (0x4)
                0x0000000000000238                __vector_offset_14 = DEFINED (__vector_dispatch_14)?(. - _ebase_address):__vector_offset_default
 *(.vector_14)
                0x000000009d000208                . = ALIGN (0x4)
                0x0000000000000238                __vector_offset_15 = DEFINED (__vector_dispatch_15)?(. - _ebase_address):__vector_offset_default
 *(.vector_15)
                0x000000009d000208                . = ALIGN (0x4)
                0x0000000000000238                __vector_offset_16 = DEFINED (__vector_dispatch_16)?(. - _ebase_address):__vector_offset_default
 *(.vector_16)
                0x000000009d000208                . = ALIGN (0x4)
                0x0000000000000238                __vector_offset_17 = DEFINED (__vector_dispatch_17)?(. - _ebase_address):__vector_offset_default
 *(.vector_17)
                0x000000009d000208                . = ALIGN (0x4)
                0x0000000000000238                __vector_offset_18 = DEFINED (__vector_dispatch_18)?(. - _ebase_address):__vector_offset_default
 *(.vector_18)
                0x000000009d000208                . = ALIGN (0x4)
                0x0000000000000238                __vector_offset_19 = DEFINED (__vector_dispatch_19)?(. - _ebase_address):__vector_offset_default
 *(.vector_19)
                0x000000009d000208                . = ALIGN (0x4)
                0x0000000000000238                __vector_offset_20 = DEFINED (__vector_dispatch_20)?(. - _ebase_address):__vector_offset_default
 *(.vector_20)
                0x000000009d000208                . = ALIGN (0x4)
                0x0000000000000238                __vector_offset_21 = DEFINED (__vector_dispatch_21)?(. - _ebase_address):__vector_offset_default
 *(.vector_21)
                0x000000009d000208                . = ALIGN (0x4)
                0x0000000000000238                __vector_offset_22 = DEFINED (__vector_dispatch_22)?(. - _ebase_address):__vector_offset_default
 *(.vector_22)
                0x000000009d000208                . = ALIGN (0x4)
                0x0000000000000238                __vector_offset_23 = DEFINED (__vector_dispatch_23)?(. - _ebase_address):__vector_offset_default
 *(.vector_23)
                0x000000009d000208                . = ALIGN (0x4)
                0x0000000000000238                __vector_offset_24 = DEFINED (__vector_dispatch_24)?(. - _ebase_address):__vector_offset_default
 *(.vector_24)
                0x000000009d000208                . = ALIGN (0x4)
                0x0000000000000238                __vector_offset_25 = DEFINED (__vector_dispatch_25)?(. - _ebase_address):__vector_offset_default
 *(.vector_25)
                0x000000009d000208                . = ALIGN (0x4)
                0x0000000000000238                __vector_offset_26 = DEFINED (__vector_dispatch_26)?(. - _ebase_address):__vector_offset_default
 *(.vector_26)
                0x000000009d000208                . = ALIGN (0x4)
                0x0000000000000238                __vector_offset_27 = DEFINED (__vector_dispatch_27)?(. - _ebase_address):__vector_offset_default
 *(.vector_27)
                0x000000009d000208                . = ALIGN (0x4)
                0x0000000000000238                __vector_offset_28 = DEFINED (__vector_dispatch_28)?(. - _ebase_address):__vector_offset_default
 *(.vector_28)
                0x000000009d000208                . = ALIGN (0x4)
                0x0000000000000238                __vector_offset_29 = DEFINED (__vector_dispatch_29)?(. - _ebase_address):__vector_offset_default
 *(.vector_29)
                0x000000009d000208                . = ALIGN (0x4)
                0x0000000000000238                __vector_offset_30 = DEFINED (__vector_dispatch_30)?(. - _ebase_address):__vector_offset_default
 *(.vector_30)
                0x000000009d000208                . = ALIGN (0x4)
                0x0000000000000238                __vector_offset_31 = DEFINED (__vector_dispatch_31)?(. - _ebase_address):__vector_offset_default
 *(.vector_31)
                0x000000009d000208                . = ALIGN (0x4)
                0x0000000000000238                __vector_offset_32 = DEFINED (__vector_dispatch_32)?(. - _ebase_address):__vector_offset_default
 *(.vector_32)
                0x000000009d000208                . = ALIGN (0x4)
                0x0000000000000238                __vector_offset_33 = DEFINED (__vector_dispatch_33)?(. - _ebase_address):__vector_offset_default
 *(.vector_33)
                0x000000009d000208                . = ALIGN (0x4)
                0x0000000000000238                __vector_offset_34 = DEFINED (__vector_dispatch_34)?(. - _ebase_address):__vector_offset_default
 *(.vector_34)
                0x000000009d000208                . = ALIGN (0x4)
                0x0000000000000238                __vector_offset_35 = DEFINED (__vector_dispatch_35)?(. - _ebase_address):__vector_offset_default
 *(.vector_35)
                0x000000009d000208                . = ALIGN (0x4)
                0x0000000000000238                __vector_offset_36 = DEFINED (__vector_dispatch_36)?(. - _ebase_address):__vector_offset_default
 *(.vector_36)
                0x000000009d000208                . = ALIGN (0x4)
                0x0000000000000238                __vector_offset_37 = DEFINED (__vector_dispatch_37)?(. - _ebase_address):__vector_offset_default
 *(.vector_37)
                0x000000009d000208                . = ALIGN (0x4)
                0x0000000000000238                __vector_offset_38 = DEFINED (__vector_dispatch_38)?(. - _ebase_address):__vector_offset_default
 *(.vector_38)
                0x000000009d000208                . = ALIGN (0x4)
                0x0000000000000238                __vector_offset_39 = DEFINED (__vector_dispatch_39)?(. - _ebase_address):__vector_offset_default
 *(.vector_39)
                0x000000009d000208                . = ALIGN (0x4)
                0x0000000000000238                __vector_offset_40 = DEFINED (__vector_dispatch_40)?(. - _ebase_address):__vector_offset_default
 *(.vector_40)
                0x000000009d000208                . = ALIGN (0x4)
                0x0000000000000238                __vector_offset_41 = DEFINED (__vector_dispatch_41)?(. - _ebase_address):__vector_offset_default
 *(.vector_41)
                0x000000009d000208                . = ALIGN (0x4)
                0x0000000000000238                __vector_offset_42 = DEFINED (__vector_dispatch_42)?(. - _ebase_address):__vector_offset_default
 *(.vector_42)
                0x000000009d000208                . = ALIGN (0x4)
                0x0000000000000238                __vector_offset_43 = DEFINED (__vector_dispatch_43)?(. - _ebase_address):__vector_offset_default
 *(.vector_43)
                0x000000009d000208                . = ALIGN (0x4)
                0x0000000000000238                __vector_offset_44 = DEFINED (__vector_dispatch_44)?(. - _ebase_address):__vector_offset_default
 *(.vector_44)
                0x000000009d000208                . = ALIGN (0x4)
                0x0000000000000238                __vector_offset_45 = DEFINED (__vector_dispatch_45)?(. - _ebase_address):__vector_offset_default
 *(.vector_45)
                0x000000009d000208                . = ALIGN (0x4)
                0x0000000000000238                __vector_offset_46 = DEFINED (__vector_dispatch_46)?(. - _ebase_address):__vector_offset_default
 *(.vector_46)
                0x000000009d000208                . = ALIGN (0x4)
                0x0000000000000238                __vector_offset_47 = DEFINED (__vector_dispatch_47)?(. - _ebase_address):__vector_offset_default
 *(.vector_47)
                0x000000009d000208                . = ALIGN (0x4)
                0x0000000000000238                __vector_offset_48 = DEFINED (__vector_dispatch_48)?(. - _ebase_address):__vector_offset_default
 *(.vector_48)
                0x000000009d000208                . = ALIGN (0x4)
                0x0000000000000238                __vector_offset_49 = DEFINED (__vector_dispatch_49)?(. - _ebase_address):__vector_offset_default
 *(.vector_49)
                0x000000009d000208                . = ALIGN (0x4)
                0x0000000000000238                __vector_offset_50 = DEFINED (__vector_dispatch_50)?(. - _ebase_address):__vector_offset_default
 *(.vector_50)
                0x000000009d000208                . = ALIGN (0x4)
                0x0000000000000238                __vector_offset_51 = DEFINED (__vector_dispatch_51)?(. - _ebase_address):__vector_offset_default
 *(.vector_51)
                0x000000009d000208                . = ALIGN (0x4)
                0x0000000000000238                __vector_offset_52 = DEFINED (__vector_dispatch_52)?(. - _ebase_address):__vector_offset_default
 *(.vector_52)
                0x000000009d000208                . = ALIGN (0x4)
                0x0000000000000238                __vector_offset_53 = DEFINED (__vector_dispatch_53)?(. - _ebase_address):__vector_offset_default
 *(.vector_53)
                0x000000009d000208                . = ALIGN (0x4)
                0x0000000000000238                __vector_offset_54 = DEFINED (__vector_dispatch_54)?(. - _ebase_address):__vector_offset_default
 *(.vector_54)
                0x000000009d000208                . = ALIGN (0x4)
                0x0000000000000238                __vector_offset_55 = DEFINED (__vector_dispatch_55)?(. - _ebase_address):__vector_offset_default
 *(.vector_55)
                0x000000009d000208                . = ALIGN (0x4)
                0x0000000000000238                __vector_offset_56 = DEFINED (__vector_dispatch_56)?(. - _ebase_address):__vector_offset_default
 *(.vector_56)
                0x000000009d000208                . = ALIGN (0x4)
                0x0000000000000238                __vector_offset_57 = DEFINED (__vector_dispatch_57)?(. - _ebase_address):__vector_offset_default
 *(.vector_57)
                0x000000009d000208                . = ALIGN (0x4)
                0x0000000000000238                __vector_offset_58 = DEFINED (__vector_dispatch_58)?(. - _ebase_address):__vector_offset_default
 *(.vector_58)
                0x000000009d000208                . = ALIGN (0x4)
                0x0000000000000238                __vector_offset_59 = DEFINED (__vector_dispatch_59)?(. - _ebase_address):__vector_offset_default
 *(.vector_59)
                0x000000009d000208                . = ALIGN (0x4)
                0x0000000000000238                __vector_offset_60 = DEFINED (__vector_dispatch_60)?(. - _ebase_address):__vector_offset_default
 *(.vector_60)
                0x000000009d000208                . = ALIGN (0x4)
                0x0000000000000238                __vector_offset_61 = DEFINED (__vector_dispatch_61)?(. - _ebase_address):__vector_offset_default
 *(.vector_61)
                0x000000009d000208                . = ALIGN (0x4)
                0x0000000000000238                __vector_offset_62 = DEFINED (__vector_dispatch_62)?(. - _ebase_address):__vector_offset_default
 *(.vector_62)
                0x000000009d000208                . = ALIGN (0x4)
                0x0000000000000238                __vector_offset_63 = DEFINED (__vector_dispatch_63)?(. - _ebase_address):__vector_offset_default
 *(.vector_63)
                0x000000009d000208                . = ALIGN (0x4)
                0x0000000000000238                __vector_offset_64 = DEFINED (__vector_dispatch_64)?(. - _ebase_address):__vector_offset_default
 *(.vector_64)
                0x000000009d000208                . = ALIGN (0x4)
                0x0000000000000238                __vector_offset_65 = DEFINED (__vector_dispatch_65)?(. - _ebase_address):__vector_offset_default
 *(.vector_65)
                0x000000009d000208                . = ALIGN (0x4)
                0x0000000000000238                __vector_offset_66 = DEFINED (__vector_dispatch_66)?(. - _ebase_address):__vector_offset_default
 *(.vector_66)
                0x000000009d000208                . = ALIGN (0x4)
                0x0000000000000238                __vector_offset_67 = DEFINED (__vector_dispatch_67)?(. - _ebase_address):__vector_offset_default
 *(.vector_67)
                0x000000009d000208                . = ALIGN (0x4)
                0x0000000000000238                __vector_offset_68 = DEFINED (__vector_dispatch_68)?(. - _ebase_address):__vector_offset_default
 *(.vector_68)
                0x000000009d000208                . = ALIGN (0x4)
                0x0000000000000238                __vector_offset_69 = DEFINED (__vector_dispatch_69)?(. - _ebase_address):__vector_offset_default
 *(.vector_69)
                0x000000009d000208                . = ALIGN (0x4)
                0x0000000000000238                __vector_offset_70 = DEFINED (__vector_dispatch_70)?(. - _ebase_address):__vector_offset_default
 *(.vector_70)
                0x000000009d000208                . = ALIGN (0x4)
                0x0000000000000238                __vector_offset_71 = DEFINED (__vector_dispatch_71)?(. - _ebase_address):__vector_offset_default
 *(.vector_71)
                0x000000009d000208                . = ALIGN (0x4)
                0x0000000000000238                __vector_offset_72 = DEFINED (__vector_dispatch_72)?(. - _ebase_address):__vector_offset_default
 *(.vector_72)
                0x000000009d000208                . = ALIGN (0x4)
                0x0000000000000238                __vector_offset_73 = DEFINED (__vector_dispatch_73)?(. - _ebase_address):__vector_offset_default
 *(.vector_73)
                0x000000009d000208                . = ALIGN (0x4)
                0x0000000000000238                __vector_offset_74 = DEFINED (__vector_dispatch_74)?(. - _ebase_address):__vector_offset_default
 *(.vector_74)
                0x000000009d000208                . = ALIGN (0x4)
                0x0000000000000238                __vector_offset_75 = DEFINED (__vector_dispatch_75)?(. - _ebase_address):__vector_offset_default
 *(.vector_75)
                0x000000009d000208                . = ALIGN (0x4)
                0x0000000000000238                __vector_offset_76 = DEFINED (__vector_dispatch_76)?(. - _ebase_address):__vector_offset_default
 *(.vector_76)
                0x000000009d000208                . = ALIGN (0x4)
                0x0000000000000238                __vector_offset_77 = DEFINED (__vector_dispatch_77)?(. - _ebase_address):__vector_offset_default
 *(.vector_77)
                0x000000009d000208                . = ALIGN (0x4)
                0x0000000000000238                __vector_offset_78 = DEFINED (__vector_dispatch_78)?(. - _ebase_address):__vector_offset_default
 *(.vector_78)
                0x000000009d000208                . = ALIGN (0x4)
                0x0000000000000238                __vector_offset_79 = DEFINED (__vector_dispatch_79)?(. - _ebase_address):__vector_offset_default
 *(.vector_79)
                0x000000009d000208                . = ALIGN (0x4)
                0x0000000000000238                __vector_offset_80 = DEFINED (__vector_dispatch_80)?(. - _ebase_address):__vector_offset_default
 *(.vector_80)
                0x000000009d000208                . = ALIGN (0x4)
                0x0000000000000238                __vector_offset_81 = DEFINED (__vector_dispatch_81)?(. - _ebase_address):__vector_offset_default
 *(.vector_81)
                0x000000009d000208                . = ALIGN (0x4)
                0x0000000000000238                __vector_offset_82 = DEFINED (__vector_dispatch_82)?(. - _ebase_address):__vector_offset_default
 *(.vector_82)
                0x000000009d000208                . = ALIGN (0x4)
                0x0000000000000238                __vector_offset_83 = DEFINED (__vector_dispatch_83)?(. - _ebase_address):__vector_offset_default
 *(.vector_83)
                0x000000009d000208                . = ALIGN (0x4)
                0x0000000000000238                __vector_offset_84 = DEFINED (__vector_dispatch_84)?(. - _ebase_address):__vector_offset_default
 *(.vector_84)
                0x000000009d000208                . = ALIGN (0x4)
                0x0000000000000238                __vector_offset_85 = DEFINED (__vector_dispatch_85)?(. - _ebase_address):__vector_offset_default
 *(.vector_85)
                0x000000009d000208                . = ALIGN (0x4)
                0x0000000000000238                __vector_offset_86 = DEFINED (__vector_dispatch_86)?(. - _ebase_address):__vector_offset_default
 *(.vector_86)
                0x000000009d000208                . = ALIGN (0x4)
                0x0000000000000238                __vector_offset_87 = DEFINED (__vector_dispatch_87)?(. - _ebase_address):__vector_offset_default
 *(.vector_87)
                0x000000009d000208                . = ALIGN (0x4)
                0x0000000000000238                __vector_offset_88 = DEFINED (__vector_dispatch_88)?(. - _ebase_address):__vector_offset_default
 *(.vector_88)
                0x000000009d000208                . = ALIGN (0x4)
                0x0000000000000238                __vector_offset_89 = DEFINED (__vector_dispatch_89)?(. - _ebase_address):__vector_offset_default
 *(.vector_89)
                0x000000009d000208                . = ALIGN (0x4)
                0x0000000000000238                __vector_offset_90 = DEFINED (__vector_dispatch_90)?(. - _ebase_address):__vector_offset_default
 *(.vector_90)
                0x000000009d000208                . = ALIGN (0x4)
                0x0000000000000238                __vector_offset_91 = DEFINED (__vector_dispatch_91)?(. - _ebase_address):__vector_offset_default
 *(.vector_91)
                0x000000009d000208                . = ALIGN (0x4)
                0x0000000000000238                __vector_offset_92 = DEFINED (__vector_dispatch_92)?(. - _ebase_address):__vector_offset_default
 *(.vector_92)
                0x000000009d000208                . = ALIGN (0x4)
                0x0000000000000238                __vector_offset_93 = DEFINED (__vector_dispatch_93)?(. - _ebase_address):__vector_offset_default
 *(.vector_93)
                0x000000009d000208                . = ALIGN (0x4)
                0x0000000000000238                __vector_offset_94 = DEFINED (__vector_dispatch_94)?(. - _ebase_address):__vector_offset_default
 *(.vector_94)
                0x000000009d000208                . = ALIGN (0x4)
                0x0000000000000238                __vector_offset_95 = DEFINED (__vector_dispatch_95)?(. - _ebase_address):__vector_offset_default
 *(.vector_95)
                0x000000009d000208                . = ALIGN (0x4)
                0x0000000000000238                __vector_offset_96 = DEFINED (__vector_dispatch_96)?(. - _ebase_address):__vector_offset_default
 *(.vector_96)
                0x000000009d000208                . = ALIGN (0x4)
                0x0000000000000238                __vector_offset_97 = DEFINED (__vector_dispatch_97)?(. - _ebase_address):__vector_offset_default
 *(.vector_97)
                0x000000009d000208                . = ALIGN (0x4)
                0x0000000000000238                __vector_offset_98 = DEFINED (__vector_dispatch_98)?(. - _ebase_address):__vector_offset_default
 *(.vector_98)
                0x000000009d000208                . = ALIGN (0x4)
                0x0000000000000238                __vector_offset_99 = DEFINED (__vector_dispatch_99)?(. - _ebase_address):__vector_offset_default
 *(.vector_99)
                0x000000009d000208                . = ALIGN (0x4)
                0x0000000000000238                __vector_offset_100 = DEFINED (__vector_dispatch_100)?(. - _ebase_address):__vector_offset_default
 *(.vector_100)
                0x000000009d000208                . = ALIGN (0x4)
                0x0000000000000238                __vector_offset_101 = DEFINED (__vector_dispatch_101)?(. - _ebase_address):__vector_offset_default
 *(.vector_101)
                0x000000009d000208                . = ALIGN (0x4)
                0x0000000000000238                __vector_offset_102 = DEFINED (__vector_dispatch_102)?(. - _ebase_address):__vector_offset_default
 *(.vector_102)
                0x000000009d000208                . = ALIGN (0x4)
                0x0000000000000238                __vector_offset_103 = DEFINED (__vector_dispatch_103)?(. - _ebase_address):__vector_offset_default
 *(.vector_103)
                0x000000009d000208                . = ALIGN (0x4)
                0x0000000000000238                __vector_offset_104 = DEFINED (__vector_dispatch_104)?(. - _ebase_address):__vector_offset_default
 *(.vector_104)
                0x000000009d000208                . = ALIGN (0x4)
                0x0000000000000238                __vector_offset_105 = DEFINED (__vector_dispatch_105)?(. - _ebase_address):__vector_offset_default
 *(.vector_105)
                0x000000009d000208                . = ALIGN (0x4)
                0x0000000000000238                __vector_offset_106 = DEFINED (__vector_dispatch_106)?(. - _ebase_address):__vector_offset_default
 *(.vector_106)
                0x000000009d000208                . = ALIGN (0x4)
                0x0000000000000238                __vector_offset_107 = DEFINED (__vector_dispatch_107)?(. - _ebase_address):__vector_offset_default
 *(.vector_107)
                0x000000009d000208                . = ALIGN (0x4)
                0x0000000000000238                __vector_offset_108 = DEFINED (__vector_dispatch_108)?(. - _ebase_address):__vector_offset_default
 *(.vector_108)
                0x000000009d000208                . = ALIGN (0x4)
                0x0000000000000238                __vector_offset_109 = DEFINED (__vector_dispatch_109)?(. - _ebase_address):__vector_offset_default
 *(.vector_109)
                0x000000009d000208                . = ALIGN (0x4)
                0x0000000000000208                __vector_offset_110 = DEFINED (__vector_dispatch_110)?(. - _ebase_address):__vector_offset_default
 *(.vector_110)
 .vector_110    0x000000009d000208        0x8 build/pic32mzef_c2_ak4954/production/_ext/79412797/interrupts.o
                0x000000009d000208                __vector_dispatch_110
                0x000000009d000210                . = ALIGN (0x4)
                0x0000000000000210                __vector_offset_111 = DEFINED (__vector_dispatch_111)?(. - _ebase_address):__vector_offset_default
 *(.vector_111)
 .vector_111    0x000000009d000210        0x8 build/pic32mzef_c2_ak4954/production/_ext/79412797/interrupts.o
                0x000000009d000210                __vector_dispatch_111
                0x000000009d000218                . = ALIGN (0x4)
                0x0000000000000238                __vector_offset_112 = DEFINED (__vector_dispatch_112)?(. - _ebase_address):__vector_offset_default
 *(.vector_112)
                0x000000009d000218                . = ALIGN (0x4)
                0x0000000000000238                __vector_offset_113 = DEFINED (__vector_dispatch_113)?(. - _ebase_address):__vector_offset_default
 *(.vector_113)
                0x000000009d000218                . = ALIGN (0x4)
                0x0000000000000238                __vector_offset_114 = DEFINED (__vector_dispatch_114)?(. - _ebase_address):__vector_offset_default
 *(.vector_114)
                0x000000009d000218                . = ALIGN (0x4)
                0x0000000000000218                __vector_offset_115 = DEFINED (__vector_dispatch_115)?(. - _ebase_address):__vector_offset_default
 *(.vector_115)
 .vector_115    0x000000009d000218        0x8 build/pic32mzef_c2_ak4954/production/_ext/79412797/interrupts.o
                0x000000009d000218                __vector_dispatch_115
                0x000000009d000220                . = ALIGN (0x4)
                0x0000000000000238                __vector_offset_116 = DEFINED (__vector_dispatch_116)?(. - _ebase_address):__vector_offset_default
 *(.vector_116)
                0x000000009d000220                . = ALIGN (0x4)
                0x0000000000000220                __vector_offset_117 = DEFINED (__vector_dispatch_117)?(. - _ebase_address):__vector_offset_default
 *(.vector_117)
 .vector_117    0x000000009d000220        0x8 build/pic32mzef_c2_ak4954/production/_ext/79412797/interrupts.o
                0x000000009d000220                __vector_dispatch_117
                0x000000009d000228                . = ALIGN (0x4)
                0x0000000000000238                __vector_offset_118 = DEFINED (__vector_dispatch_118)?(. - _ebase_address):__vector_offset_default
 *(.vector_118)
                0x000000009d000228                . = ALIGN (0x4)
                0x0000000000000238                __vector_offset_119 = DEFINED (__vector_dispatch_119)?(. - _ebase_address):__vector_offset_default
 *(.vector_119)
                0x000000009d000228                . = ALIGN (0x4)
                0x0000000000000238                __vector_offset_120 = DEFINED (__vector_dispatch_120)?(. - _ebase_address):__vector_offset_default
 *(.vector_120)
                0x000000009d000228                . = ALIGN (0x4)
                0x0000000000000238                __vector_offset_121 = DEFINED (__vector_dispatch_121)?(. - _ebase_address):__vector_offset_default
 *(.vector_121)
                0x000000009d000228                . = ALIGN (0x4)
                0x0000000000000238                __vector_offset_122 = DEFINED (__vector_dispatch_122)?(. - _ebase_address):__vector_offset_default
 *(.vector_122)
                0x000000009d000228                . = ALIGN (0x4)
                0x0000000000000238                __vector_offset_123 = DEFINED (__vector_dispatch_123)?(. - _ebase_address):__vector_offset_default
 *(.vector_123)
                0x000000009d000228                . = ALIGN (0x4)
                0x0000000000000238                __vector_offset_124 = DEFINED (__vector_dispatch_124)?(. - _ebase_address):__vector_offset_default
 *(.vector_124)
                0x000000009d000228                . = ALIGN (0x4)
                0x0000000000000238                __vector_offset_125 = DEFINED (__vector_dispatch_125)?(. - _ebase_address):__vector_offset_default
 *(.vector_125)
                0x000000009d000228                . = ALIGN (0x4)
                0x0000000000000238                __vector_offset_126 = DEFINED (__vector_dispatch_126)?(. - _ebase_address):__vector_offset_default
 *(.vector_126)
                0x000000009d000228                . = ALIGN (0x4)
                0x0000000000000238                __vector_offset_127 = DEFINED (__vector_dispatch_127)?(. - _ebase_address):__vector_offset_default
 *(.vector_127)
                0x000000009d000228                . = ALIGN (0x4)
                0x0000000000000238                __vector_offset_128 = DEFINED (__vector_dispatch_128)?(. - _ebase_address):__vector_offset_default
 *(.vector_128)
                0x000000009d000228                . = ALIGN (0x4)
                0x0000000000000238                __vector_offset_129 = DEFINED (__vector_dispatch_129)?(. - _ebase_address):__vector_offset_default
 *(.vector_129)
                0x000000009d000228                . = ALIGN (0x4)
                0x0000000000000238                __vector_offset_130 = DEFINED (__vector_dispatch_130)?(. - _ebase_address):__vector_offset_default
 *(.vector_130)
                0x000000009d000228                . = ALIGN (0x4)
                0x0000000000000238                __vector_offset_131 = DEFINED (__vector_dispatch_131)?(. - _ebase_address):__vector_offset_default
 *(.vector_131)
                0x000000009d000228                . = ALIGN (0x4)
                0x0000000000000238                __vector_offset_132 = DEFINED (__vector_dispatch_132)?(. - _ebase_address):__vector_offset_default
 *(.vector_132)
                0x000000009d000228                . = ALIGN (0x4)
                0x0000000000000238                __vector_offset_133 = DEFINED (__vector_dispatch_133)?(. - _ebase_address):__vector_offset_default
 *(.vector_133)
                0x000000009d000228                . = ALIGN (0x4)
                0x0000000000000228                __vector_offset_134 = DEFINED (__vector_dispatch_134)?(. - _ebase_address):__vector_offset_default
 *(.vector_134)
 .vector_134    0x000000009d000228        0x8 build/pic32mzef_c2_ak4954/production/_ext/79412797/interrupts.o
                0x000000009d000228                __vector_dispatch_134
                0x000000009d000230                . = ALIGN (0x4)
                0x0000000000000230                __vector_offset_135 = DEFINED (__vector_dispatch_135)?(. - _ebase_address):__vector_offset_default
 *(.vector_135)
 .vector_135    0x000000009d000230        0x8 build/pic32mzef_c2_ak4954/production/_ext/79412797/interrupts.o
                0x000000009d000230                __vector_dispatch_135
                0x000000009d000238                . = ALIGN (0x4)
                0x0000000000000238                __vector_offset_136 = DEFINED (__vector_dispatch_136)?(. - _ebase_address):__vector_offset_default
 *(.vector_136)
                0x000000009d000238                . = ALIGN (0x4)
                0x0000000000000238                __vector_offset_137 = DEFINED (__vector_dispatch_137)?(. - _ebase_address):__vector_offset_default
 *(.vector_137)
                0x000000009d000238                . = ALIGN (0x4)
                0x0000000000000238                __vector_offset_138 = DEFINED (__vector_dispatch_138)?(. - _ebase_address):__vector_offset_default
 *(.vector_138)
                0x000000009d000238                . = ALIGN (0x4)
                0x0000000000000238                __vector_offset_139 = DEFINED (__vector_dispatch_139)?(. - _ebase_address):__vector_offset_default
 *(.vector_139)
                0x000000009d000238                . = ALIGN (0x4)
                0x0000000000000238                __vector_offset_140 = DEFINED (__vector_dispatch_140)?(. - _ebase_address):__vector_offset_default
 *(.vector_140)
                0x000000009d000238                . = ALIGN (0x4)
                0x0000000000000238                __vector_offset_141 = DEFINED (__vector_dispatch_141)?(. - _ebase_address):__vector_offset_default
 *(.vector_141)
                0x000000009d000238                . = ALIGN (0x4)
                0x0000000000000238                __vector_offset_142 = DEFINED (__vector_dispatch_142)?(. - _ebase_address):__vector_offset_default
 *(.vector_142)
                0x000000009d000238                . = ALIGN (0x4)
                0x0000000000000238                __vector_offset_143 = DEFINED (__vector_dispatch_143)?(. - _ebase_address):__vector_offset_default
 *(.vector_143)
                0x000000009d000238                . = ALIGN (0x4)
                0x0000000000000238                __vector_offset_144 = DEFINED (__vector_dispatch_144)?(. - _ebase_address):__vector_offset_default
 *(.vector_144)
                0x000000009d000238                . = ALIGN (0x4)
                0x0000000000000238                __vector_offset_145 = DEFINED (__vector_dispatch_145)?(. - _ebase_address):__vector_offset_default
 *(.vector_145)
                0x000000009d000238                . = ALIGN (0x4)
                0x0000000000000238                __vector_offset_146 = DEFINED (__vector_dispatch_146)?(. - _ebase_address):__vector_offset_default
 *(.vector_146)
                0x000000009d000238                . = ALIGN (0x4)
                0x0000000000000238                __vector_offset_147 = DEFINED (__vector_dispatch_147)?(. - _ebase_address):__vector_offset_default
 *(.vector_147)
                0x000000009d000238                . = ALIGN (0x4)
                0x0000000000000238                __vector_offset_148 = DEFINED (__vector_dispatch_148)?(. - _ebase_address):__vector_offset_default
 *(.vector_148)
                0x000000009d000238                . = ALIGN (0x4)
                0x0000000000000238                __vector_offset_149 = DEFINED (__vector_dispatch_149)?(. - _ebase_address):__vector_offset_default
 *(.vector_149)
                0x000000009d000238                . = ALIGN (0x4)
                0x0000000000000238                __vector_offset_150 = DEFINED (__vector_dispatch_150)?(. - _ebase_address):__vector_offset_default
 *(.vector_150)
                0x000000009d000238                . = ALIGN (0x4)
                0x0000000000000238                __vector_offset_151 = DEFINED (__vector_dispatch_151)?(. - _ebase_address):__vector_offset_default
 *(.vector_151)
                0x000000009d000238                . = ALIGN (0x4)
                0x0000000000000238                __vector_offset_152 = DEFINED (__vector_dispatch_152)?(. - _ebase_address):__vector_offset_default
 *(.vector_152)
                0x000000009d000238                . = ALIGN (0x4)
                0x0000000000000238                __vector_offset_153 = DEFINED (__vector_dispatch_153)?(. - _ebase_address):__vector_offset_default
 *(.vector_153)
                0x000000009d000238                . = ALIGN (0x4)
                0x0000000000000238                __vector_offset_154 = DEFINED (__vector_dispatch_154)?(. - _ebase_address):__vector_offset_default
 *(.vector_154)
                0x000000009d000238                . = ALIGN (0x4)
                0x0000000000000238                __vector_offset_155 = DEFINED (__vector_dispatch_155)?(. - _ebase_address):__vector_offset_default
 *(.vector_155)
                0x000000009d000238                . = ALIGN (0x4)
                0x0000000000000238                __vector_offset_156 = DEFINED (__vector_dispatch_156)?(. - _ebase_address):__vector_offset_default
 *(.vector_156)
                0x000000009d000238                . = ALIGN (0x4)
                0x0000000000000238                __vector_offset_157 = DEFINED (__vector_dispatch_157)?(. - _ebase_address):__vector_offset_default
 *(.vector_157)
                0x000000009d000238                . = ALIGN (0x4)
                0x0000000000000238                __vector_offset_158 = DEFINED (__vector_dispatch_158)?(. - _ebase_address):__vector_offset_default
 *(.vector_158)
                0x000000009d000238                . = ALIGN (0x4)
                0x0000000000000238                __vector_offset_159 = DEFINED (__vector_dispatch_159)?(. - _ebase_address):__vector_offset_default
 *(.vector_159)
                0x000000009d000238                . = ALIGN (0x4)
                0x0000000000000238                __vector_offset_160 = DEFINED (__vector_dispatch_160)?(. - _ebase_address):__vector_offset_default
 *(.vector_160)
                0x000000009d000238                . = ALIGN (0x4)
                0x0000000000000238                __vector_offset_161 = DEFINED (__vector_dispatch_161)?(. - _ebase_address):__vector_offset_default
 *(.vector_161)
                0x000000009d000238                . = ALIGN (0x4)
                0x0000000000000238                __vector_offset_162 = DEFINED (__vector_dispatch_162)?(. - _ebase_address):__vector_offset_default
 *(.vector_162)
                0x000000009d000238                . = ALIGN (0x4)
                0x0000000000000238                __vector_offset_163 = DEFINED (__vector_dispatch_163)?(. - _ebase_address):__vector_offset_default
 *(.vector_163)
                0x000000009d000238                . = ALIGN (0x4)
                0x0000000000000238                __vector_offset_164 = DEFINED (__vector_dispatch_164)?(. - _ebase_address):__vector_offset_default
 *(.vector_164)
                0x000000009d000238                . = ALIGN (0x4)
                0x0000000000000238                __vector_offset_165 = DEFINED (__vector_dispatch_165)?(. - _ebase_address):__vector_offset_default
 *(.vector_165)
                0x000000009d000238                . = ALIGN (0x4)
                0x0000000000000238                __vector_offset_166 = DEFINED (__vector_dispatch_166)?(. - _ebase_address):__vector_offset_default
 *(.vector_166)
                0x000000009d000238                . = ALIGN (0x4)
                0x0000000000000238                __vector_offset_167 = DEFINED (__vector_dispatch_167)?(. - _ebase_address):__vector_offset_default
 *(.vector_167)
                0x000000009d000238                . = ALIGN (0x4)
                0x0000000000000238                __vector_offset_168 = DEFINED (__vector_dispatch_168)?(. - _ebase_address):__vector_offset_default
 *(.vector_168)
                0x000000009d000238                . = ALIGN (0x4)
                0x0000000000000238                __vector_offset_169 = DEFINED (__vector_dispatch_169)?(. - _ebase_address):__vector_offset_default
 *(.vector_169)
                0x000000009d000238                . = ALIGN (0x4)
                0x0000000000000238                __vector_offset_170 = DEFINED (__vector_dispatch_170)?(. - _ebase_address):__vector_offset_default
 *(.vector_170)
                0x000000009d000238                . = ALIGN (0x4)
                0x0000000000000238                __vector_offset_171 = DEFINED (__vector_dispatch_171)?(. - _ebase_address):__vector_offset_default
 *(.vector_171)
                0x000000009d000238                . = ALIGN (0x4)
                0x0000000000000238                __vector_offset_172 = DEFINED (__vector_dispatch_172)?(. - _ebase_address):__vector_offset_default
 *(.vector_172)
                0x000000009d000238                . = ALIGN (0x4)
                0x0000000000000238                __vector_offset_173 = DEFINED (__vector_dispatch_173)?(. - _ebase_address):__vector_offset_default
 *(.vector_173)
                0x000000009d000238                . = ALIGN (0x4)
                0x0000000000000238                __vector_offset_174 = DEFINED (__vector_dispatch_174)?(. - _ebase_address):__vector_offset_default
 *(.vector_174)
                0x000000009d000238                . = ALIGN (0x4)
                0x0000000000000238                __vector_offset_175 = DEFINED (__vector_dispatch_175)?(. - _ebase_address):__vector_offset_default
 *(.vector_175)
                0x000000009d000238                . = ALIGN (0x4)
                0x0000000000000238                __vector_offset_176 = DEFINED (__vector_dispatch_176)?(. - _ebase_address):__vector_offset_default
 *(.vector_176)
                0x000000009d000238                . = ALIGN (0x4)
                0x0000000000000238                __vector_offset_177 = DEFINED (__vector_dispatch_177)?(. - _ebase_address):__vector_offset_default
 *(.vector_177)
                0x000000009d000238                . = ALIGN (0x4)
                0x0000000000000238                __vector_offset_178 = DEFINED (__vector_dispatch_178)?(. - _ebase_address):__vector_offset_default
 *(.vector_178)
                0x000000009d000238                . = ALIGN (0x4)
                0x0000000000000238                __vector_offset_179 = DEFINED (__vector_dispatch_179)?(. - _ebase_address):__vector_offset_default
 *(.vector_179)
                0x000000009d000238                . = ALIGN (0x4)
                0x0000000000000238                __vector_offset_180 = DEFINED (__vector_dispatch_180)?(. - _ebase_address):__vector_offset_default
 *(.vector_180)
                0x000000009d000238                . = ALIGN (0x4)
                0x0000000000000238                __vector_offset_181 = DEFINED (__vector_dispatch_181)?(. - _ebase_address):__vector_offset_default
 *(.vector_181)
                0x000000009d000238                . = ALIGN (0x4)
                0x0000000000000238                __vector_offset_182 = DEFINED (__vector_dispatch_182)?(. - _ebase_address):__vector_offset_default
 *(.vector_182)
                0x000000009d000238                . = ALIGN (0x4)
                0x0000000000000238                __vector_offset_183 = DEFINED (__vector_dispatch_183)?(. - _ebase_address):__vector_offset_default
 *(.vector_183)
                0x000000009d000238                . = ALIGN (0x4)
                0x0000000000000238                __vector_offset_184 = DEFINED (__vector_dispatch_184)?(. - _ebase_address):__vector_offset_default
 *(.vector_184)
                0x000000009d000238                . = ALIGN (0x4)
                0x0000000000000238                __vector_offset_185 = DEFINED (__vector_dispatch_185)?(. - _ebase_address):__vector_offset_default
 *(.vector_185)
                0x000000009d000238                . = ALIGN (0x4)
                0x0000000000000238                __vector_offset_186 = DEFINED (__vector_dispatch_186)?(. - _ebase_address):__vector_offset_default
 *(.vector_186)
                0x000000009d000238                . = ALIGN (0x4)
                0x0000000000000238                __vector_offset_187 = DEFINED (__vector_dispatch_187)?(. - _ebase_address):__vector_offset_default
 *(.vector_187)
                0x000000009d000238                . = ALIGN (0x4)
                0x0000000000000238                __vector_offset_188 = DEFINED (__vector_dispatch_188)?(. - _ebase_address):__vector_offset_default
 *(.vector_188)
                0x000000009d000238                . = ALIGN (0x4)
                0x0000000000000238                __vector_offset_189 = DEFINED (__vector_dispatch_189)?(. - _ebase_address):__vector_offset_default
 *(.vector_189)
                0x000000009d000238                . = ALIGN (0x4)
                0x0000000000000238                __vector_offset_190 = DEFINED (__vector_dispatch_190)?(. - _ebase_address):__vector_offset_default
 *(.vector_190)
                0x000000009d000238                . = ALIGN (0x4)
                0x0000000000000238                __vector_offset_191 = DEFINED (__vector_dispatch_191)?(. - _ebase_address):__vector_offset_default
 *(.vector_191)
                0x000000009d000238                . = ALIGN (0x4)
                0x0000000000000238                __vector_offset_192 = DEFINED (__vector_dispatch_192)?(. - _ebase_address):__vector_offset_default
 *(.vector_192)
                0x000000009d000238                . = ALIGN (0x4)
                0x0000000000000238                __vector_offset_193 = DEFINED (__vector_dispatch_193)?(. - _ebase_address):__vector_offset_default
 *(.vector_193)
                0x000000009d000238                . = ALIGN (0x4)
                0x0000000000000238                __vector_offset_194 = DEFINED (__vector_dispatch_194)?(. - _ebase_address):__vector_offset_default
 *(.vector_194)
                0x000000009d000238                . = ALIGN (0x4)
                0x0000000000000238                __vector_offset_195 = DEFINED (__vector_dispatch_195)?(. - _ebase_address):__vector_offset_default
 *(.vector_195)
                0x000000009d000238                . = ALIGN (0x4)
                0x0000000000000238                __vector_offset_196 = DEFINED (__vector_dispatch_196)?(. - _ebase_address):__vector_offset_default
 *(.vector_196)
                0x000000009d000238                . = ALIGN (0x4)
                0x0000000000000238                __vector_offset_197 = DEFINED (__vector_dispatch_197)?(. - _ebase_address):__vector_offset_default
 *(.vector_197)
                0x000000009d000238                . = ALIGN (0x4)
                0x0000000000000238                __vector_offset_198 = DEFINED (__vector_dispatch_198)?(. - _ebase_address):__vector_offset_default
 *(.vector_198)
                0x000000009d000238                . = ALIGN (0x4)
                0x0000000000000238                __vector_offset_199 = DEFINED (__vector_dispatch_199)?(. - _ebase_address):__vector_offset_default
 *(.vector_199)
                0x000000009d000238                . = ALIGN (0x4)
                0x0000000000000238                __vector_offset_200 = DEFINED (__vector_dispatch_200)?(. - _ebase_address):__vector_offset_default
 *(.vector_200)
                0x000000009d000238                . = ALIGN (0x4)
                0x0000000000000238                __vector_offset_201 = DEFINED (__vector_dispatch_201)?(. - _ebase_address):__vector_offset_default
 *(.vector_201)
                0x000000009d000238                . = ALIGN (0x4)
                0x0000000000000238                __vector_offset_202 = DEFINED (__vector_dispatch_202)?(. - _ebase_address):__vector_offset_default
 *(.vector_202)
                0x000000009d000238                . = ALIGN (0x4)
                0x0000000000000238                __vector_offset_203 = DEFINED (__vector_dispatch_203)?(. - _ebase_address):__vector_offset_default
 *(.vector_203)
                0x000000009d000238                . = ALIGN (0x4)
                0x0000000000000238                __vector_offset_204 = DEFINED (__vector_dispatch_204)?(. - _ebase_address):__vector_offset_default
 *(.vector_204)
                0x000000009d000238                . = ALIGN (0x4)
                0x0000000000000238                __vector_offset_205 = DEFINED (__vector_dispatch_205)?(. - _ebase_address):__vector_offset_default
 *(.vector_205)
                0x000000009d000238                . = ALIGN (0x4)
                0x0000000000000238                __vector_offset_206 = DEFINED (__vector_dispatch_206)?(. - _ebase_address):__vector_offset_default
 *(.vector_206)
                0x000000009d000238                . = ALIGN (0x4)
                0x0000000000000238                __vector_offset_207 = DEFINED (__vector_dispatch_207)?(. - _ebase_address):__vector_offset_default
 *(.vector_207)
                0x000000009d000238                . = ALIGN (0x4)
                0x0000000000000238                __vector_offset_208 = DEFINED (__vector_dispatch_208)?(. - _ebase_address):__vector_offset_default
 *(.vector_208)
                0x000000009d000238                . = ALIGN (0x4)
                0x0000000000000238                __vector_offset_209 = DEFINED (__vector_dispatch_209)?(. - _ebase_address):__vector_offset_default
 *(.vector_209)
                0x000000009d000238                . = ALIGN (0x4)
                0x0000000000000238                __vector_offset_210 = DEFINED (__vector_dispatch_210)?(. - _ebase_address):__vector_offset_default
 *(.vector_210)
                0x000000009d000238                . = ALIGN (0x4)
                0x0000000000000238                __vector_offset_211 = DEFINED (__vector_dispatch_211)?(. - _ebase_address):__vector_offset_default
 *(.vector_211)
                0x000000009d000238                . = ALIGN (0x4)
                0x0000000000000238                __vector_offset_212 = DEFINED (__vector_dispatch_212)?(. - _ebase_address):__vector_offset_default
 *(.vector_212)
                0x000000009d000238                . = ALIGN (0x4)
                0x0000000000000238                __vector_offset_213 = DEFINED (__vector_dispatch_213)?(. - _ebase_address):__vector_offset_default
 *(.vector_213)
                0x000000009d000238                . = ALIGN (0x4)
                0x0000000000000238                __vector_offset_214 = DEFINED (__vector_dispatch_214)?(. - _ebase_address):__vector_offset_default
 *(.vector_214)
                0x000000009d000238                . = ALIGN (0x4)
                0x0000000000000238                __vector_offset_215 = DEFINED (__vector_dispatch_215)?(. - _ebase_address):__vector_offset_default
 *(.vector_215)
                0x000000009d000238                . = ALIGN (0x4)
                0x0000000000000238                __vector_offset_216 = DEFINED (__vector_dispatch_216)?(. - _ebase_address):__vector_offset_default
 *(.vector_216)
                0x000000009d000238                . = ALIGN (0x4)
                0x0000000000000238                __vector_offset_217 = DEFINED (__vector_dispatch_217)?(. - _ebase_address):__vector_offset_default
 *(.vector_217)
                0x000000009d000238                . = ALIGN (0x4)
                0x0000000000000238                __vector_offset_218 = DEFINED (__vector_dispatch_218)?(. - _ebase_address):__vector_offset_default
 *(.vector_218)
                0x000000009d000238                . = ALIGN (0x4)
                0x0000000000000238                __vector_offset_219 = DEFINED (__vector_dispatch_219)?(. - _ebase_address):__vector_offset_default
 *(.vector_219)
                0x000000009d000238                . = ALIGN (0x4)
                0x0000000000000238                __vector_offset_220 = DEFINED (__vector_dispatch_220)?(. - _ebase_address):__vector_offset_default
 *(.vector_220)
                0x000000009d000238                . = ALIGN (0x4)
                0x0000000000000238                __vector_offset_221 = DEFINED (__vector_dispatch_221)?(. - _ebase_address):__vector_offset_default
 *(.vector_221)
                0x000000009d000238                . = ALIGN (0x4)
                0x0000000000000238                __vector_offset_222 = DEFINED (__vector_dispatch_222)?(. - _ebase_address):__vector_offset_default
 *(.vector_222)
                0x000000009d000238                . = ALIGN (0x4)
                0x0000000000000238                __vector_offset_223 = DEFINED (__vector_dispatch_223)?(. - _ebase_address):__vector_offset_default
 *(.vector_223)
                0x000000009d000238                . = ALIGN (0x4)
                0x0000000000000238                __vector_offset_224 = DEFINED (__vector_dispatch_224)?(. - _ebase_address):__vector_offset_default
 *(.vector_224)
                0x000000009d000238                . = ALIGN (0x4)
                0x0000000000000238                __vector_offset_225 = DEFINED (__vector_dispatch_225)?(. - _ebase_address):__vector_offset_default
 *(.vector_225)
                0x000000009d000238                . = ALIGN (0x4)
                0x0000000000000238                __vector_offset_226 = DEFINED (__vector_dispatch_226)?(. - _ebase_address):__vector_offset_default
 *(.vector_226)
                0x000000009d000238                . = ALIGN (0x4)
                0x0000000000000238                __vector_offset_227 = DEFINED (__vector_dispatch_227)?(. - _ebase_address):__vector_offset_default
 *(.vector_227)
                0x000000009d000238                . = ALIGN (0x4)
                0x0000000000000238                __vector_offset_228 = DEFINED (__vector_dispatch_228)?(. - _ebase_address):__vector_offset_default
 *(.vector_228)
                0x000000009d000238                . = ALIGN (0x4)
                0x0000000000000238                __vector_offset_229 = DEFINED (__vector_dispatch_229)?(. - _ebase_address):__vector_offset_default
 *(.vector_229)
                0x000000009d000238                . = ALIGN (0x4)
                0x0000000000000238                __vector_offset_230 = DEFINED (__vector_dispatch_230)?(. - _ebase_address):__vector_offset_default
 *(.vector_230)
                0x000000009d000238                . = ALIGN (0x4)
                0x0000000000000238                __vector_offset_231 = DEFINED (__vector_dispatch_231)?(. - _ebase_address):__vector_offset_default
 *(.vector_231)
                0x000000009d000238                . = ALIGN (0x4)
                0x0000000000000238                __vector_offset_232 = DEFINED (__vector_dispatch_232)?(. - _ebase_address):__vector_offset_default
 *(.vector_232)
                0x000000009d000238                . = ALIGN (0x4)
                0x0000000000000238                __vector_offset_233 = DEFINED (__vector_dispatch_233)?(. - _ebase_address):__vector_offset_default
 *(.vector_233)
                0x000000009d000238                . = ALIGN (0x4)
                0x0000000000000238                __vector_offset_234 = DEFINED (__vector_dispatch_234)?(. - _ebase_address):__vector_offset_default
 *(.vector_234)
                0x000000009d000238                . = ALIGN (0x4)
                0x0000000000000238                __vector_offset_235 = DEFINED (__vector_dispatch_235)?(. - _ebase_address):__vector_offset_default
 *(.vector_235)
                0x000000009d000238                . = ALIGN (0x4)
                0x0000000000000238                __vector_offset_236 = DEFINED (__vector_dispatch_236)?(. - _ebase_address):__vector_offset_default
 *(.vector_236)
                0x000000009d000238                . = ALIGN (0x4)
                0x0000000000000238                __vector_offset_237 = DEFINED (__vector_dispatch_237)?(. - _ebase_address):__vector_offset_default
 *(.vector_237)
                0x000000009d000238                . = ALIGN (0x4)
                0x0000000000000238                __vector_offset_238 = DEFINED (__vector_dispatch_238)?(. - _ebase_address):__vector_offset_default
 *(.vector_238)
                0x000000009d000238                . = ALIGN (0x4)
                0x0000000000000238                __vector_offset_239 = DEFINED (__vector_dispatch_239)?(. - _ebase_address):__vector_offset_default
 *(.vector_239)
                0x000000009d000238                . = ALIGN (0x4)
                0x0000000000000238                __vector_offset_240 = DEFINED (__vector_dispatch_240)?(. - _ebase_address):__vector_offset_default
 *(.vector_240)
                0x000000009d000238                . = ALIGN (0x4)
                0x0000000000000238                __vector_offset_241 = DEFINED (__vector_dispatch_241)?(. - _ebase_address):__vector_offset_default
 *(.vector_241)
                0x000000009d000238                . = ALIGN (0x4)
                0x0000000000000238                __vector_offset_242 = DEFINED (__vector_dispatch_242)?(. - _ebase_address):__vector_offset_default
 *(.vector_242)
                0x000000009d000238                . = ALIGN (0x4)
                0x0000000000000238                __vector_offset_243 = DEFINED (__vector_dispatch_243)?(. - _ebase_address):__vector_offset_default
 *(.vector_243)
                0x000000009d000238                . = ALIGN (0x4)
                0x0000000000000238                __vector_offset_244 = DEFINED (__vector_dispatch_244)?(. - _ebase_address):__vector_offset_default
 *(.vector_244)
                0x000000009d000238                . = ALIGN (0x4)
                0x0000000000000238                __vector_offset_245 = DEFINED (__vector_dispatch_245)?(. - _ebase_address):__vector_offset_default
 *(.vector_245)
                0x000000009d000238                . = ALIGN (0x4)
                0x0000000000000238                __vector_offset_246 = DEFINED (__vector_dispatch_246)?(. - _ebase_address):__vector_offset_default
 *(.vector_246)
                0x000000009d000238                . = ALIGN (0x4)
                0x0000000000000238                __vector_offset_247 = DEFINED (__vector_dispatch_247)?(. - _ebase_address):__vector_offset_default
 *(.vector_247)
                0x000000009d000238                . = ALIGN (0x4)
                0x0000000000000238                __vector_offset_248 = DEFINED (__vector_dispatch_248)?(. - _ebase_address):__vector_offset_default
 *(.vector_248)
                0x000000009d000238                . = ALIGN (0x4)
                0x0000000000000238                __vector_offset_249 = DEFINED (__vector_dispatch_249)?(. - _ebase_address):__vector_offset_default
 *(.vector_249)
                0x000000009d000238                . = ALIGN (0x4)
                0x0000000000000238                __vector_offset_250 = DEFINED (__vector_dispatch_250)?(. - _ebase_address):__vector_offset_default
 *(.vector_250)
                0x000000009d000238                . = ALIGN (0x4)
                0x0000000000000238                __vector_offset_251 = DEFINED (__vector_dispatch_251)?(. - _ebase_address):__vector_offset_default
 *(.vector_251)
                0x000000009d000238                . = ALIGN (0x4)
                0x0000000000000238                __vector_offset_252 = DEFINED (__vector_dispatch_252)?(. - _ebase_address):__vector_offset_default
 *(.vector_252)
                0x000000009d000238                . = ALIGN (0x4)
                0x0000000000000238                __vector_offset_253 = DEFINED (__vector_dispatch_253)?(. - _ebase_address):__vector_offset_default
 *(.vector_253)
                0x000000009d000238                . = ALIGN (0x4)
                0x0000000000000238                __vector_offset_254 = DEFINED (__vector_dispatch_254)?(. - _ebase_address):__vector_offset_default
 *(.vector_254)
                0x000000009d000238                . = ALIGN (0x4)
                0x0000000000000238                __vector_offset_255 = DEFINED (__vector_dispatch_255)?(. - _ebase_address):__vector_offset_default
 *(.vector_255)
                0x000000009d000238                . = ALIGN (0x4)
                0x0000000000000238                __vector_offset_default = (. - _ebase_address)
 *(.vector_default)
 .vector_default
                0x000000009d000238       0x48 c:/program files/microchip/xc32/v4.21/bin/bin/../../lib/gcc/pic32mx/8.3.1/../../../../pic32mx/lib/fpu64\libpic32.a(defaultinterrupt.o)
                0x000000009d000238                _DefaultInterrupt

.startup
 *(.startup)

.text           0x000000009d000280        0x0
 *(.stub .gnu.linkonce.t.*)
 *(.text.*personality*)
 *(.mips16.fn.*)
 *(.mips16.call.*)
 *(.gnu.warning)
                0x000000009d000280                . = ALIGN (0x4)

.init           0x000000009d000280        0x0
 *crti.o(.init)
 *crtbegin.o(.init)
 *(EXCLUDE_FILE(*crtn.o *crtend?.o *crtend.o) .init)
 *crtend.o(.init)
 *crtn.o(.init)
                0x000000009d000280                . = ALIGN (0x4)

.fini           0x000000009d000280        0x0
 *(.fini)
                0x000000009d000280                . = ALIGN (0x4)

.preinit_array  0x000000009d000280        0x0
                [!provide]                        PROVIDE (__preinit_array_start = .)
 *(.preinit_array)
                [!provide]                        PROVIDE (__preinit_array_end = .)
                0x000000009d000280                . = ALIGN (0x4)

.init_array     0x000000009d000280        0x0
                [!provide]                        PROVIDE (__init_array_start = .)
 *(SORT_BY_NAME(.init_array.*))
 *(.init_array)
                [!provide]                        PROVIDE (__init_array_end = .)
                0x000000009d000280                . = ALIGN (0x4)

.fini_array     0x000000009d000280        0x0
                [!provide]                        PROVIDE (__fini_array_start = .)
 *(SORT_BY_NAME(.fini_array.*))
 *(.fini_array)
                [!provide]                        PROVIDE (__fini_array_end = .)
                0x000000009d000280                . = ALIGN (0x4)

.ctors          0x000000009d000280        0x0
 *crtbegin.o(.ctors)
 *crtbegin?.o(.ctors)
 *(EXCLUDE_FILE(*crtend?.o *crtend.o) .ctors)
 *(SORT_BY_NAME(.ctors.*))
 *(.ctors)
                0x000000009d000280                . = ALIGN (0x4)

.dtors          0x000000009d000280        0x0
 *crtbegin.o(.dtors)
 *crtbegin?.o(.dtors)
 *(EXCLUDE_FILE(*crtend?.o *crtend.o) .dtors)
 *(SORT_BY_NAME(.dtors.*))
 *(.dtors)
                0x000000009d000280                . = ALIGN (0x4)

.rodata         0x000000009d000280        0x0
 *(.gnu.linkonce.r.*)
 *(.rodata1)
                0x000000009d000280                . = ALIGN (0x4)

.sdata2         0x000000009d000280        0x0
 *(.sdata2 .sdata2.* .gnu.linkonce.s2.*)
                0x000000009d000280                . = ALIGN (0x4)

.sbss2          0x000000009d000280        0x0
 *(.sbss2 .sbss2.* .gnu.linkonce.sb2.*)
                0x000000009d000280                . = ALIGN (0x4)

.eh_frame_hdr
 *(.eh_frame_hdr)
                0x000000009d000280                . = ALIGN (0x4)

.eh_frame
 *(.eh_frame)
                0x000000009d000280                . = ALIGN (0x4)

.gcc_except_table
 *(.gcc_except_table .gcc_except_table.*)
                0x000000009d000280                . = ALIGN (0x4)

.dbg_data       0x0000000080000000        0x0
                0x0000000080000000                . = (. + DEFINED (_DEBUGGER)?0x200:0x0)
                0x0000000080000000                . = (. + DEFINED (_DEBUGGER)?0x80:0x0)
                0x0000000080000000                . = (. + DEFINED (_DEBUGGER)?0x100:0x0)

.jcr            0x0000000080000000        0x0
 *(.jcr)
                0x0000000080000000                . = ALIGN (0x4)

.eh_frame
 *(.eh_frame)
                0x0000000080000000                . = ALIGN (0x4)

.gcc_except_table
 *(.gcc_except_table .gcc_except_table.*)
                0x0000000080000000                . = ALIGN (0x4)

.persist        0x0000000080000000        0x0
                0x0000000080000000                _persist_begin = .
 *(.persist .persist.*)
                0x0000000080000000                . = ALIGN (0x4)
                0x0000000080000000                _persist_end = .

.data           0x0000000080000000        0x0
 *(.gnu.linkonce.d.*)
 *(.data1)
                0x0000000080000000                . = ALIGN (0x4)
                0x0000000080000000                . = .
                0x0000000080007ff0                _gp = (ALIGN (0x10) + 0x7ff0)

.got            0x0000000080000000        0x0
 *(.got.plt)
 *(.got)
                0x0000000080000000                . = ALIGN (0x4)

.sdata          0x0000000080000000       0x28
                0x0000000080000000                _sdata_begin = .
 *(.sdata .sdata.* .gnu.linkonce.s.*)
 .sdata         0x0000000080000000        0x2 build/pic32mzef_c2_ak4954/production/_ext/784026422/sys_time.o
 *fill*         0x0000000080000002        0x2 
 .sdata         0x0000000080000004       0x24 c:/program files/microchip/xc32/v4.21/bin/bin/../../lib/gcc/pic32mx/8.3.1/../../../../pic32mx/lib/fpu64\libpic32.a(pic32_init_cache.o)
                0x0000000080000004                __pic32_icache_size
                0x0000000080000008                __pic32_icache_linesize
                0x000000008000000c                __pic32_icache_ways
                0x0000000080000010                __pic32_dcache_size
                0x0000000080000014                __pic32_dcache_linesize
                0x0000000080000018                __pic32_dcache_ways
                0x000000008000001c                __pic32_scache_size
                0x0000000080000020                __pic32_scache_linesize
                0x0000000080000024                __pic32_scache_ways
                0x0000000080000028                . = ALIGN (0x4)
                0x0000000080000028                _sdata_end = .

.lit8
 *(.lit8)

.lit4
 *(.lit4)
                0x0000000080000028                . = ALIGN (0x4)
                0x0000000080000028                _data_end = .
                0x0000000080000028                _bss_begin = .

.sbss           0x0000000080000028       0x9c
                0x0000000080000028                _sbss_begin = .
 *(.dynsbss)
 *(.sbss .sbss.* .gnu.linkonce.sb.*)
 .sbss          0x0000000080000028        0x4 build/pic32mzef_c2_ak4954/production/_ext/212299867/wav_dec.o
 .sbss          0x000000008000002c       0x18 build/pic32mzef_c2_ak4954/production/_ext/450163651/drv_i2s.o
 .sbss          0x0000000080000044        0x8 build/pic32mzef_c2_ak4954/production/_ext/1867241316/ff.o
 .sbss          0x000000008000004c        0xc build/pic32mzef_c2_ak4954/production/_ext/344840758/sys_fs_media_manager.o
 .sbss          0x0000000080000058        0x1 build/pic32mzef_c2_ak4954/production/_ext/344840758/sys_fs_fat_interface.o
 *fill*         0x0000000080000059        0x3 
 .sbss          0x000000008000005c       0x28 build/pic32mzef_c2_ak4954/production/_ext/1360937237/app_sdcard_audio_task.o
                0x000000008000005c                flag_enter1
                0x0000000080000060                check_flag
                0x0000000080000064                flag_enter5
                0x0000000080000068                flag_enter4
                0x000000008000006c                flag_enter3
                0x0000000080000070                flag_enter2
                0x0000000080000074                playerPlay
                0x0000000080000076                playerDiskDataSize
                0x000000008000007c                playerFileStreamStart
 .sbss          0x0000000080000084        0x4 build/pic32mzef_c2_ak4954/production/_ext/1360937237/decoder.o
 *(.scommon)
 .scommon       0x0000000080000088        0x2 build/pic32mzef_c2_ak4954/production/_ext/1856562345/drv_ak4954.o
                0x0000000080000088                gDrvak4954CommonDataObj
 *fill*         0x000000008000008a        0x2 
 .scommon       0x000000008000008c        0x8 build/pic32mzef_c2_ak4954/production/_ext/131824383/plib_coretimer.o
                0x000000008000008c                coreTmr
 .scommon       0x0000000080000094       0x18 build/pic32mzef_c2_ak4954/production/_ext/344840758/sys_fs.o
                0x0000000080000094                gSYSFSObj
                0x000000008000009c                gSysFsMutex
                0x00000000800000a0                gSYSFSCurrentMountPoint
                0x00000000800000a8                errorValue
 .scommon       0x00000000800000ac        0x2 build/pic32mzef_c2_ak4954/production/_ext/344840758/sys_fs_media_manager.o
                0x00000000800000ac                VolToPart
 *fill*         0x00000000800000ae        0x2 
 .scommon       0x00000000800000b0       0x14 build/pic32mzef_c2_ak4954/production/_ext/1360937237/app_sdcard_audio_task.o
                0x00000000800000b0                playerStreaming
                0x00000000800000b1                FileListAvailable
                0x00000000800000b4                playerFileAdvanceStep
                0x00000000800000b8                AppSdCardAudioContext
                0x00000000800000bc                AppDataAudioPlayerPtr
                0x00000000800000c0                loop_count
                0x00000000800000c4                _sbss_end = .
                0x00000000800000c4                . = ALIGN (0x4)

.bss            0x00000000800000c4     0x42b4
 *(.dynbss)
 *(COMMON)
 COMMON         0x00000000800000c4      0x12c build/pic32mzef_c2_ak4954/production/_ext/1856562345/drv_ak4954.o
                0x00000000800000c4                gDrvak4954ClientObj
                0x00000000800000d8                command_array
                0x00000000800000ec                gDrvCommandBuffer
                0x000000008000012c                gDrvak4954Obj
 COMMON         0x00000000800001f0      0x2dc build/pic32mzef_c2_ak4954/production/_ext/450163651/drv_i2s.o
                0x00000000800001f0                gDrvI2SBufferObj
                0x0000000080000470                gDrvI2SObj
 COMMON         0x00000000800004cc       0x28 build/pic32mzef_c2_ak4954/production/_ext/603446335/plib_spi1_master.o
                0x00000000800004cc                spi1Obj
 COMMON         0x00000000800004f4      0x254 build/pic32mzef_c2_ak4954/production/_ext/344840758/sys_fs.o
                0x00000000800004f4                gSYSFSFileObj
                0x0000000080000714                gSYSFSDirObj
                0x0000000080000734                gSYSFSMountPoint
 COMMON         0x0000000080000748       0x48 build/pic32mzef_c2_ak4954/production/_ext/344840758/sys_fs_media_manager.o
                0x0000000080000748                gSYSFSMediaObject
                0x0000000080000774                gSYSFSVolumeObject
 COMMON         0x0000000080000790       0x14 build/pic32mzef_c2_ak4954/production/_ext/79412797/initialization.o
                0x0000000080000790                sysObj
 COMMON         0x00000000800007a4     0x3bc7 build/pic32mzef_c2_ak4954/production/_ext/1360937237/app_sdcard_audio_task.o
                0x00000000800007a4                AppDataAudioCardData
                0x00000000800008cc                AppSdCardAudioData
                0x000000008000426c                AppSdCardAudioCardCurrentLFN
 *fill*         0x000000008000436b        0x1 
 COMMON         0x000000008000436c        0xc build/pic32mzef_c2_ak4954/production/_ext/1360937237/app.o
                0x000000008000436c                appData
                0x0000000080004378                . = ALIGN ((. != 0x0)?0x4:0x1)
                0x0000000080004378                . = ALIGN (0x4)
                0x0000000080004378                _end = .
                0x0000000080004378                _bss_end = .
                0x0000000000080000                _bmxdudba_address = LENGTH (kseg0_data_mem)
                0x0000000000080000                _bmxdupba_address = LENGTH (kseg0_data_mem)

/DISCARD/
 *(.pdr)
 *(.rel.dyn)
 *(.note.GNU-stack)
 *(.note.GNU-stack)
 *(.gnu_debuglink)
 *(.gnu.lto_*)
 *(.discard)

.gptab.sdata
 *(.gptab.data)
 *(.gptab.sdata)

.gptab.sbss
 *(.gptab.bss)
 *(.gptab.sbss)

.mdebug.abi32   0x0000000000000000        0x0
 *(.mdebug.abi32)
 .mdebug.abi32  0x0000000000000000        0x0 build/pic32mzef_c2_ak4954/production/_ext/212299867/wav_dec.o
 .mdebug.abi32  0x0000000000000000        0x0 build/pic32mzef_c2_ak4954/production/_ext/1856562345/drv_ak4954.o
 .mdebug.abi32  0x0000000000000000        0x0 build/pic32mzef_c2_ak4954/production/_ext/450163651/drv_i2s.o
 .mdebug.abi32  0x0000000000000000        0x0 build/pic32mzef_c2_ak4954/production/_ext/563155524/plib_i2s2.o
 .mdebug.abi32  0x0000000000000000        0x0 build/pic32mzef_c2_ak4954/production/_ext/1477346291/bsp.o
 .mdebug.abi32  0x0000000000000000        0x0 build/pic32mzef_c2_ak4954/production/_ext/1337057836/drv_i2c.o
 .mdebug.abi32  0x0000000000000000        0x0 build/pic32mzef_c2_ak4954/production/_ext/1500991179/drv_sdspi.o
 .mdebug.abi32  0x0000000000000000        0x0 build/pic32mzef_c2_ak4954/production/_ext/1500991179/drv_sdspi_plib_interface.o
 .mdebug.abi32  0x0000000000000000        0x0 build/pic32mzef_c2_ak4954/production/_ext/1500991179/drv_sdspi_file_system.o
 .mdebug.abi32  0x0000000000000000        0x0 build/pic32mzef_c2_ak4954/production/_ext/617362437/plib_cache.o
 .mdebug.abi32  0x0000000000000000        0x0 build/pic32mzef_c2_ak4954/production/_ext/1435277349/plib_clk.o
 .mdebug.abi32  0x0000000000000000        0x0 build/pic32mzef_c2_ak4954/production/_ext/131824383/plib_coretimer.o
 .mdebug.abi32  0x0000000000000000        0x0 build/pic32mzef_c2_ak4954/production/_ext/1543894318/plib_dmac.o
 .mdebug.abi32  0x0000000000000000        0x0 build/pic32mzef_c2_ak4954/production/_ext/1543855630/plib_evic.o
 .mdebug.abi32  0x0000000000000000        0x0 build/pic32mzef_c2_ak4954/production/_ext/1543801802/plib_gpio.o
 .mdebug.abi32  0x0000000000000000        0x0 build/pic32mzef_c2_ak4954/production/_ext/232538270/plib_i2c1_master.o
 .mdebug.abi32  0x0000000000000000        0x0 build/pic32mzef_c2_ak4954/production/_ext/603446335/plib_spi1_master.o
 .mdebug.abi32  0x0000000000000000        0x0 build/pic32mzef_c2_ak4954/production/_ext/1543398859/plib_uart6.o
 .mdebug.abi32  0x0000000000000000        0x0 build/pic32mzef_c2_ak4954/production/_ext/1888667843/xc32_monitor.o
 .mdebug.abi32  0x0000000000000000        0x0 build/pic32mzef_c2_ak4954/production/_ext/839150702/sys_cache.o
 .mdebug.abi32  0x0000000000000000        0x0 build/pic32mzef_c2_ak4954/production/_ext/2050519836/sys_dma.o
 .mdebug.abi32  0x0000000000000000        0x0 build/pic32mzef_c2_ak4954/production/_ext/1867241316/ff.o
 .mdebug.abi32  0x0000000000000000        0x0 build/pic32mzef_c2_ak4954/production/_ext/1867241316/ffunicode.o
 .mdebug.abi32  0x0000000000000000        0x0 build/pic32mzef_c2_ak4954/production/_ext/1892335699/diskio.o
 .mdebug.abi32  0x0000000000000000        0x0 build/pic32mzef_c2_ak4954/production/_ext/344840758/sys_fs.o
 .mdebug.abi32  0x0000000000000000        0x0 build/pic32mzef_c2_ak4954/production/_ext/344840758/sys_fs_media_manager.o
 .mdebug.abi32  0x0000000000000000        0x0 build/pic32mzef_c2_ak4954/production/_ext/344840758/sys_fs_fat_interface.o
 .mdebug.abi32  0x0000000000000000        0x0 build/pic32mzef_c2_ak4954/production/_ext/386225584/sys_int.o
 .mdebug.abi32  0x0000000000000000        0x0 build/pic32mzef_c2_ak4954/production/_ext/784026422/sys_time.o
 .mdebug.abi32  0x0000000000000000        0x0 build/pic32mzef_c2_ak4954/production/_ext/79412797/initialization.o
 .mdebug.abi32  0x0000000000000000        0x0 build/pic32mzef_c2_ak4954/production/_ext/79412797/interrupts.o
 .mdebug.abi32  0x0000000000000000        0x0 build/pic32mzef_c2_ak4954/production/_ext/79412797/exceptions.o
 .mdebug.abi32  0x0000000000000000        0x0 build/pic32mzef_c2_ak4954/production/_ext/79412797/tasks.o
 .mdebug.abi32  0x0000000000000000        0x0 build/pic32mzef_c2_ak4954/production/_ext/1360937237/app_sdcard_audio_task.o
 .mdebug.abi32  0x0000000000000000        0x0 build/pic32mzef_c2_ak4954/production/_ext/1360937237/decoder.o
 .mdebug.abi32  0x0000000000000000        0x0 build/pic32mzef_c2_ak4954/production/_ext/1360937237/main.o
 .mdebug.abi32  0x0000000000000000        0x0 build/pic32mzef_c2_ak4954/production/_ext/1360937237/app.o
 .mdebug.abi32  0x0000000000000000        0x0 c:/program files/microchip/xc32/v4.21/bin/bin/../../lib/gcc/pic32mx/8.3.1/fpu64\libgcc.a(_udivdi3.o)
 .mdebug.abi32  0x0000000000000000        0x0 c:/program files/microchip/xc32/v4.21/bin/bin/../../lib/gcc/pic32mx/8.3.1/../../../../pic32mx/lib/fpu64\libpic32.a(default-on-reset.o)
 .mdebug.abi32  0x0000000000000000        0x0 c:/program files/microchip/xc32/v4.21/bin/bin/../../lib/gcc/pic32mx/8.3.1/../../../../pic32mx/lib/fpu64\libpic32.a(default-on-bootstrap.o)
 .mdebug.abi32  0x0000000000000000        0x0 c:/program files/microchip/xc32/v4.21/bin/bin/../../lib/gcc/pic32mx/8.3.1/../../../../pic32mx/lib/fpu64\libpic32.a(defaultinterrupt.o)
 .mdebug.abi32  0x0000000000000000        0x0 c:/program files/microchip/xc32/v4.21/bin/bin/../../lib/gcc/pic32mx/8.3.1/../../../../pic32mx/lib/fpu64\libc-musl.a(__sio_printf_dosux.o)
 .mdebug.abi32  0x0000000000000000        0x0 c:/program files/microchip/xc32/v4.21/bin/bin/../../lib/gcc/pic32mx/8.3.1/../../../../pic32mx/lib/fpu64\libc-musl.a(__fmt_d.o)
 .mdebug.abi32  0x0000000000000000        0x0 c:/program files/microchip/xc32/v4.21/bin/bin/../../lib/gcc/pic32mx/8.3.1/../../../../pic32mx/lib/fpu64\libc-musl.a(__fmt_o.o)
 .mdebug.abi32  0x0000000000000000        0x0 c:/program files/microchip/xc32/v4.21/bin/bin/../../lib/gcc/pic32mx/8.3.1/../../../../pic32mx/lib/fpu64\libc-musl.a(__fmt_s.o)
 .mdebug.abi32  0x0000000000000000        0x0 c:/program files/microchip/xc32/v4.21/bin/bin/../../lib/gcc/pic32mx/8.3.1/../../../../pic32mx/lib/fpu64\libc-musl.a(__fmt_u.o)
 .mdebug.abi32  0x0000000000000000        0x0 c:/program files/microchip/xc32/v4.21/bin/bin/../../lib/gcc/pic32mx/8.3.1/../../../../pic32mx/lib/fpu64\libc-musl.a(__fmt_x.o)
 .mdebug.abi32  0x0000000000000000        0x0 c:/program files/microchip/xc32/v4.21/bin/bin/../../lib/gcc/pic32mx/8.3.1/../../../../pic32mx/lib/fpu64\libc-musl.a(__pop_int.o)
 .mdebug.abi32  0x0000000000000000        0x0 c:/program files/microchip/xc32/v4.21/bin/bin/../../lib/gcc/pic32mx/8.3.1/../../../../pic32mx/lib/fpu64\libc-musl.a(__pop_ptr.o)
 .mdebug.abi32  0x0000000000000000        0x0 c:/program files/microchip/xc32/v4.21/bin/bin/../../lib/gcc/pic32mx/8.3.1/../../../../pic32mx/lib/fpu64\libc-musl.a(__printf_core.o)
 .mdebug.abi32  0x0000000000000000        0x0 c:/program files/microchip/xc32/v4.21/bin/bin/../../lib/gcc/pic32mx/8.3.1/../../../../pic32mx/lib/fpu64\libc-musl.a(stdout.o)
 .mdebug.abi32  0x0000000000000000        0x0 c:/program files/microchip/xc32/v4.21/bin/bin/../../lib/gcc/pic32mx/8.3.1/../../../../pic32mx/lib/fpu64\libc-musl.a(atoi.o)
 .mdebug.abi32  0x0000000000000000        0x0 c:/program files/microchip/xc32/v4.21/bin/bin/../../lib/gcc/pic32mx/8.3.1/../../../../pic32mx/lib/fpu64\libc-musl.a(memmove.o)
 .mdebug.abi32  0x0000000000000000        0x0 c:/program files/microchip/xc32/v4.21/bin/bin/../../lib/gcc/pic32mx/8.3.1/../../../../pic32mx/lib/fpu64\libc-musl.a(strcat.o)
 .mdebug.abi32  0x0000000000000000        0x0 c:/program files/microchip/xc32/v4.21/bin/bin/../../lib/gcc/pic32mx/8.3.1/../../../../pic32mx/lib/fpu64\libc-musl.a(strncmp.o)
 .mdebug.abi32  0x0000000000000000        0x0 c:/program files/microchip/xc32/v4.21/bin/bin/../../lib/gcc/pic32mx/8.3.1/../../../../pic32mx/lib/fpu64\libc-musl.a(tolower.o)
 .mdebug.abi32  0x0000000000000000        0x0 c:/program files/microchip/xc32/v4.21/bin/bin/../../lib/gcc/pic32mx/8.3.1/../../../../pic32mx/lib/fpu64\libc-musl.a(toupper.o)
 .mdebug.abi32  0x0000000000000000        0x0 c:/program files/microchip/xc32/v4.21/bin/bin/../../lib/gcc/pic32mx/8.3.1/../../../../pic32mx/lib/fpu64\libc-musl.a(__int_vfprintf.o)
 .mdebug.abi32  0x0000000000000000        0x0 c:/program files/microchip/xc32/v4.21/bin/bin/../../lib/gcc/pic32mx/8.3.1/../../../../pic32mx/lib/fpu64\libc-musl.a(__fopen.o)
 .mdebug.abi32  0x0000000000000000        0x0 c:/program files/microchip/xc32/v4.21/bin/bin/../../lib/gcc/pic32mx/8.3.1/../../../../pic32mx/lib/fpu64\libc-musl.a(__io_init_needed.o)
 .mdebug.abi32  0x0000000000000000        0x0 c:/program files/microchip/xc32/v4.21/bin/bin/../../lib/gcc/pic32mx/8.3.1/../../../../pic32mx/lib/fpu64\libc-musl.a(__out.o)
 .mdebug.abi32  0x0000000000000000        0x0 c:/program files/microchip/xc32/v4.21/bin/bin/../../lib/gcc/pic32mx/8.3.1/../../../../pic32mx/lib/fpu64\libc-musl.a(__pop_float.o)
 .mdebug.abi32  0x0000000000000000        0x0 c:/program files/microchip/xc32/v4.21/bin/bin/../../lib/gcc/pic32mx/8.3.1/../../../../pic32mx/lib/fpu64\libc-musl.a(__stdio_close.o)
 .mdebug.abi32  0x0000000000000000        0x0 c:/program files/microchip/xc32/v4.21/bin/bin/../../lib/gcc/pic32mx/8.3.1/../../../../pic32mx/lib/fpu64\libc-musl.a(malloc.o)
 .mdebug.abi32  0x0000000000000000        0x0 c:/program files/microchip/xc32/v4.21/bin/bin/../../lib/gcc/pic32mx/8.3.1/../../../../pic32mx/lib/fpu64\libc-musl.a(expand_heap.o)
 .mdebug.abi32  0x0000000000000000        0x0 c:/program files/microchip/xc32/v4.21/bin/bin/../../lib/gcc/pic32mx/8.3.1/../../../../pic32mx/lib/fpu64\libc-musl.a(__init_stdio.o)
 .mdebug.abi32  0x0000000000000000        0x0 c:/program files/microchip/xc32/v4.21/bin/bin/../../lib/gcc/pic32mx/8.3.1/../../../../pic32mx/lib/fpu64\libc-musl.a(__io_file_needed.o)
 .mdebug.abi32  0x0000000000000000        0x0 c:/program files/microchip/xc32/v4.21/bin/bin/../../lib/gcc/pic32mx/8.3.1/../../../../pic32mx/lib/fpu64\libc-musl.a(libc.o)
 .mdebug.abi32  0x0000000000000000        0x0 c:/program files/microchip/xc32/v4.21/bin/bin/../../lib/gcc/pic32mx/8.3.1/fpu64\libgcc.a(_lshrdi3.o)
 .mdebug.abi32  0x0000000000000000        0x0 c:/program files/microchip/xc32/v4.21/bin/bin/../../lib/gcc/pic32mx/8.3.1/fpu64\libgcc.a(_ashldi3.o)
 .mdebug.abi32  0x0000000000000000        0x0 c:/program files/microchip/xc32/v4.21/bin/bin/../../lib/gcc/pic32mx/8.3.1/fpu64\libgcc.a(_umoddi3.o)
 .mdebug.abi32  0x0000000000000000        0x0 c:/program files/microchip/xc32/v4.21/bin/bin/../../lib/gcc/pic32mx/8.3.1/../../../../pic32mx/lib/fpu64\libpic32.a(sbrk.o)
 .mdebug.abi32  0x0000000000000000        0x0 c:/program files/microchip/xc32/v4.21/bin/bin/../../lib/gcc/pic32mx/8.3.1/../../../../pic32mx/lib/fpu64\libpic32.a(write.o)
 .mdebug.abi32  0x0000000000000000        0x0 c:/program files/microchip/xc32/v4.21/bin/bin/../../lib/gcc/pic32mx/8.3.1/../../../../pic32mx/lib/fpu64\libpic32.a(lseek.o)
 .mdebug.abi32  0x0000000000000000        0x0 c:/program files/microchip/xc32/v4.21/bin/bin/../../lib/gcc/pic32mx/8.3.1/../../../../pic32mx/lib/fpu64\libpic32.a(close.o)
 .mdebug.abi32  0x0000000000000000        0x0 c:/program files/microchip/xc32/v4.21/bin/bin/../../lib/gcc/pic32mx/8.3.1/../../../../pic32mx/lib/fpu64\libpic32.a(errno.o)

.mdebug.abiN32
 *(.mdebug.abiN32)

.mdebug.abi64
 *(.mdebug.abi64)

.mdebug.abiO64
 *(.mdebug.abiO64)

.mdebug.eabi32
 *(.mdebug.eabi32)

.mdebug.eabi64
 *(.mdebug.eabi64)

.gcc_compiled_long32
 *(.gcc_compiled_long32)

.gcc_compiled_long64
 *(.gcc_compiled_long64)

.stab
 *(.stab)

.stabstr
 *(.stabstr)

.stab.excl
 *(.stab.excl)

.stab.exclstr
 *(.stab.exclstr)

.stab.index
 *(.stab.index)

.stab.indexstr
 *(.stab.indexstr)

.comment        0x0000000000000000       0xf1
 *(.comment)
 .comment       0x0000000000000000       0x2b build/pic32mzef_c2_ak4954/production/_ext/212299867/wav_dec.o
                                         0x2c (size before relaxing)
 .comment       0x000000000000002b       0x2c build/pic32mzef_c2_ak4954/production/_ext/1856562345/drv_ak4954.o
 .comment       0x000000000000002b       0x2c build/pic32mzef_c2_ak4954/production/_ext/450163651/drv_i2s.o
 .comment       0x000000000000002b       0x2c build/pic32mzef_c2_ak4954/production/_ext/563155524/plib_i2s2.o
 .comment       0x000000000000002b       0x2c build/pic32mzef_c2_ak4954/production/_ext/1477346291/bsp.o
 .comment       0x000000000000002b       0x2c build/pic32mzef_c2_ak4954/production/_ext/1337057836/drv_i2c.o
 .comment       0x000000000000002b       0x2c build/pic32mzef_c2_ak4954/production/_ext/1500991179/drv_sdspi.o
 .comment       0x000000000000002b       0x2c build/pic32mzef_c2_ak4954/production/_ext/1500991179/drv_sdspi_plib_interface.o
 .comment       0x000000000000002b       0x2c build/pic32mzef_c2_ak4954/production/_ext/1500991179/drv_sdspi_file_system.o
 .comment       0x000000000000002b       0x2c build/pic32mzef_c2_ak4954/production/_ext/617362437/plib_cache.o
 .comment       0x000000000000002b       0x2c build/pic32mzef_c2_ak4954/production/_ext/1435277349/plib_clk.o
 .comment       0x000000000000002b       0x2c build/pic32mzef_c2_ak4954/production/_ext/131824383/plib_coretimer.o
 .comment       0x000000000000002b       0x2c build/pic32mzef_c2_ak4954/production/_ext/1543894318/plib_dmac.o
 .comment       0x000000000000002b       0x2c build/pic32mzef_c2_ak4954/production/_ext/1543855630/plib_evic.o
 .comment       0x000000000000002b       0x2c build/pic32mzef_c2_ak4954/production/_ext/1543801802/plib_gpio.o
 .comment       0x000000000000002b       0x2c build/pic32mzef_c2_ak4954/production/_ext/232538270/plib_i2c1_master.o
 .comment       0x000000000000002b       0x2c build/pic32mzef_c2_ak4954/production/_ext/603446335/plib_spi1_master.o
 .comment       0x000000000000002b       0x2c build/pic32mzef_c2_ak4954/production/_ext/1543398859/plib_uart6.o
 .comment       0x000000000000002b       0x2c build/pic32mzef_c2_ak4954/production/_ext/1888667843/xc32_monitor.o
 .comment       0x000000000000002b       0x2c build/pic32mzef_c2_ak4954/production/_ext/839150702/sys_cache.o
 .comment       0x000000000000002b       0x2c build/pic32mzef_c2_ak4954/production/_ext/2050519836/sys_dma.o
 .comment       0x000000000000002b       0x2c build/pic32mzef_c2_ak4954/production/_ext/1867241316/ff.o
 .comment       0x000000000000002b       0x2c build/pic32mzef_c2_ak4954/production/_ext/1867241316/ffunicode.o
 .comment       0x000000000000002b       0x2c build/pic32mzef_c2_ak4954/production/_ext/1892335699/diskio.o
 .comment       0x000000000000002b       0x2c build/pic32mzef_c2_ak4954/production/_ext/344840758/sys_fs.o
 .comment       0x000000000000002b       0x2c build/pic32mzef_c2_ak4954/production/_ext/344840758/sys_fs_media_manager.o
 .comment       0x000000000000002b       0x2c build/pic32mzef_c2_ak4954/production/_ext/344840758/sys_fs_fat_interface.o
 .comment       0x000000000000002b       0x2c build/pic32mzef_c2_ak4954/production/_ext/386225584/sys_int.o
 .comment       0x000000000000002b       0x2c build/pic32mzef_c2_ak4954/production/_ext/784026422/sys_time.o
 .comment       0x000000000000002b       0x2c build/pic32mzef_c2_ak4954/production/_ext/79412797/initialization.o
 .comment       0x000000000000002b       0x2c build/pic32mzef_c2_ak4954/production/_ext/79412797/interrupts.o
 .comment       0x000000000000002b       0x2c build/pic32mzef_c2_ak4954/production/_ext/79412797/exceptions.o
 .comment       0x000000000000002b       0x2c build/pic32mzef_c2_ak4954/production/_ext/79412797/tasks.o
 .comment       0x000000000000002b       0x2c build/pic32mzef_c2_ak4954/production/_ext/1360937237/app_sdcard_audio_task.o
 .comment       0x000000000000002b       0x2c build/pic32mzef_c2_ak4954/production/_ext/1360937237/decoder.o
 .comment       0x000000000000002b       0x2c build/pic32mzef_c2_ak4954/production/_ext/1360937237/main.o
 .comment       0x000000000000002b       0x2c build/pic32mzef_c2_ak4954/production/_ext/1360937237/app.o
 .comment       0x000000000000002b       0x2c c:/program files/microchip/xc32/v4.21/bin/bin/../../lib/gcc/pic32mx/8.3.1/fpu64\libgcc.a(_udivdi3.o)
 .comment       0x000000000000002b       0x18 c:/program files/microchip/xc32/v4.21/bin/bin/../../lib/gcc/pic32mx/8.3.1/../../../../pic32mx/lib/fpu64\libpic32.a(memcmp.o)
                                         0x19 (size before relaxing)
 .comment       0x0000000000000043       0x18 c:/program files/microchip/xc32/v4.21/bin/bin/../../lib/gcc/pic32mx/8.3.1/../../../../pic32mx/lib/fpu64\libpic32.a(memset.o)
                                         0x19 (size before relaxing)
 .comment       0x000000000000005b       0x19 c:/program files/microchip/xc32/v4.21/bin/bin/../../lib/gcc/pic32mx/8.3.1/../../../../pic32mx/lib/fpu64\libpic32.a(strcmp.o)
                                         0x1a (size before relaxing)
 .comment       0x0000000000000074       0x19 c:/program files/microchip/xc32/v4.21/bin/bin/../../lib/gcc/pic32mx/8.3.1/../../../../pic32mx/lib/fpu64\libpic32.a(strcpy.o)
                                         0x1a (size before relaxing)
 .comment       0x000000000000008d       0x19 c:/program files/microchip/xc32/v4.21/bin/bin/../../lib/gcc/pic32mx/8.3.1/../../../../pic32mx/lib/fpu64\libpic32.a(strlen.o)
                                         0x1a (size before relaxing)
 .comment       0x00000000000000a6       0x2c c:/program files/microchip/xc32/v4.21/bin/bin/../../lib/gcc/pic32mx/8.3.1/../../../../pic32mx/lib/fpu64\libpic32.a(default-on-reset.o)
 .comment       0x00000000000000a6       0x2c c:/program files/microchip/xc32/v4.21/bin/bin/../../lib/gcc/pic32mx/8.3.1/../../../../pic32mx/lib/fpu64\libpic32.a(default-on-bootstrap.o)
 .comment       0x00000000000000a6       0x2c c:/program files/microchip/xc32/v4.21/bin/bin/../../lib/gcc/pic32mx/8.3.1/../../../../pic32mx/lib/fpu64\libpic32.a(defaultinterrupt.o)
 .comment       0x00000000000000a6       0x2c c:/program files/microchip/xc32/v4.21/bin/bin/../../lib/gcc/pic32mx/8.3.1/../../../../pic32mx/lib/fpu64\libc-musl.a(__sio_printf_dosux.o)
 .comment       0x00000000000000a6       0x2c c:/program files/microchip/xc32/v4.21/bin/bin/../../lib/gcc/pic32mx/8.3.1/../../../../pic32mx/lib/fpu64\libc-musl.a(__fmt_d.o)
 .comment       0x00000000000000a6       0x2c c:/program files/microchip/xc32/v4.21/bin/bin/../../lib/gcc/pic32mx/8.3.1/../../../../pic32mx/lib/fpu64\libc-musl.a(__fmt_o.o)
 .comment       0x00000000000000a6       0x2c c:/program files/microchip/xc32/v4.21/bin/bin/../../lib/gcc/pic32mx/8.3.1/../../../../pic32mx/lib/fpu64\libc-musl.a(__fmt_s.o)
 .comment       0x00000000000000a6       0x2c c:/program files/microchip/xc32/v4.21/bin/bin/../../lib/gcc/pic32mx/8.3.1/../../../../pic32mx/lib/fpu64\libc-musl.a(__fmt_u.o)
 .comment       0x00000000000000a6       0x2c c:/program files/microchip/xc32/v4.21/bin/bin/../../lib/gcc/pic32mx/8.3.1/../../../../pic32mx/lib/fpu64\libc-musl.a(__fmt_x.o)
 .comment       0x00000000000000a6       0x2c c:/program files/microchip/xc32/v4.21/bin/bin/../../lib/gcc/pic32mx/8.3.1/../../../../pic32mx/lib/fpu64\libc-musl.a(__pop_int.o)
 .comment       0x00000000000000a6       0x2c c:/program files/microchip/xc32/v4.21/bin/bin/../../lib/gcc/pic32mx/8.3.1/../../../../pic32mx/lib/fpu64\libc-musl.a(__pop_ptr.o)
 .comment       0x00000000000000a6       0x2c c:/program files/microchip/xc32/v4.21/bin/bin/../../lib/gcc/pic32mx/8.3.1/../../../../pic32mx/lib/fpu64\libc-musl.a(__printf_core.o)
 .comment       0x00000000000000a6       0x2c c:/program files/microchip/xc32/v4.21/bin/bin/../../lib/gcc/pic32mx/8.3.1/../../../../pic32mx/lib/fpu64\libc-musl.a(stdout.o)
 .comment       0x00000000000000a6       0x2c c:/program files/microchip/xc32/v4.21/bin/bin/../../lib/gcc/pic32mx/8.3.1/../../../../pic32mx/lib/fpu64\libc-musl.a(atoi.o)
 .comment       0x00000000000000a6       0x2c c:/program files/microchip/xc32/v4.21/bin/bin/../../lib/gcc/pic32mx/8.3.1/../../../../pic32mx/lib/fpu64\libc-musl.a(memmove.o)
 .comment       0x00000000000000a6       0x2c c:/program files/microchip/xc32/v4.21/bin/bin/../../lib/gcc/pic32mx/8.3.1/../../../../pic32mx/lib/fpu64\libc-musl.a(strcat.o)
 .comment       0x00000000000000a6       0x2c c:/program files/microchip/xc32/v4.21/bin/bin/../../lib/gcc/pic32mx/8.3.1/../../../../pic32mx/lib/fpu64\libc-musl.a(strncmp.o)
 .comment       0x00000000000000a6       0x2c c:/program files/microchip/xc32/v4.21/bin/bin/../../lib/gcc/pic32mx/8.3.1/../../../../pic32mx/lib/fpu64\libc-musl.a(tolower.o)
 .comment       0x00000000000000a6       0x2c c:/program files/microchip/xc32/v4.21/bin/bin/../../lib/gcc/pic32mx/8.3.1/../../../../pic32mx/lib/fpu64\libc-musl.a(toupper.o)
 .comment       0x00000000000000a6       0x2c c:/program files/microchip/xc32/v4.21/bin/bin/../../lib/gcc/pic32mx/8.3.1/../../../../pic32mx/lib/fpu64\libc-musl.a(__int_vfprintf.o)
 .comment       0x00000000000000a6       0x2c c:/program files/microchip/xc32/v4.21/bin/bin/../../lib/gcc/pic32mx/8.3.1/../../../../pic32mx/lib/fpu64\libc-musl.a(__fopen.o)
 .comment       0x00000000000000a6       0x2c c:/program files/microchip/xc32/v4.21/bin/bin/../../lib/gcc/pic32mx/8.3.1/../../../../pic32mx/lib/fpu64\libc-musl.a(__io_init_needed.o)
 .comment       0x00000000000000a6       0x2c c:/program files/microchip/xc32/v4.21/bin/bin/../../lib/gcc/pic32mx/8.3.1/../../../../pic32mx/lib/fpu64\libc-musl.a(__out.o)
 .comment       0x00000000000000a6       0x2c c:/program files/microchip/xc32/v4.21/bin/bin/../../lib/gcc/pic32mx/8.3.1/../../../../pic32mx/lib/fpu64\libc-musl.a(__pop_float.o)
 .comment       0x00000000000000a6       0x2c c:/program files/microchip/xc32/v4.21/bin/bin/../../lib/gcc/pic32mx/8.3.1/../../../../pic32mx/lib/fpu64\libc-musl.a(__stdio_close.o)
 .comment       0x00000000000000a6       0x2c c:/program files/microchip/xc32/v4.21/bin/bin/../../lib/gcc/pic32mx/8.3.1/../../../../pic32mx/lib/fpu64\libc-musl.a(malloc.o)
 .comment       0x00000000000000a6       0x2c c:/program files/microchip/xc32/v4.21/bin/bin/../../lib/gcc/pic32mx/8.3.1/../../../../pic32mx/lib/fpu64\libc-musl.a(expand_heap.o)
 .comment       0x00000000000000a6       0x2c c:/program files/microchip/xc32/v4.21/bin/bin/../../lib/gcc/pic32mx/8.3.1/../../../../pic32mx/lib/fpu64\libc-musl.a(__init_stdio.o)
 .comment       0x00000000000000a6       0x2c c:/program files/microchip/xc32/v4.21/bin/bin/../../lib/gcc/pic32mx/8.3.1/../../../../pic32mx/lib/fpu64\libc-musl.a(__io_file_needed.o)
 .comment       0x00000000000000a6       0x2c c:/program files/microchip/xc32/v4.21/bin/bin/../../lib/gcc/pic32mx/8.3.1/../../../../pic32mx/lib/fpu64\libc-musl.a(libc.o)
 .comment       0x00000000000000a6       0x2c c:/program files/microchip/xc32/v4.21/bin/bin/../../lib/gcc/pic32mx/8.3.1/fpu64\libgcc.a(_lshrdi3.o)
 .comment       0x00000000000000a6       0x2c c:/program files/microchip/xc32/v4.21/bin/bin/../../lib/gcc/pic32mx/8.3.1/fpu64\libgcc.a(_ashldi3.o)
 .comment       0x00000000000000a6       0x2c c:/program files/microchip/xc32/v4.21/bin/bin/../../lib/gcc/pic32mx/8.3.1/fpu64\libgcc.a(_umoddi3.o)
 .comment       0x00000000000000a6       0x4b c:/program files/microchip/xc32/v4.21/bin/bin/../../lib/gcc/pic32mx/8.3.1/../../../../pic32mx/lib/fpu64\libpic32.a(sbrk.o)
                                         0x77 (size before relaxing)
 .comment       0x00000000000000f1       0x2c c:/program files/microchip/xc32/v4.21/bin/bin/../../lib/gcc/pic32mx/8.3.1/../../../../pic32mx/lib/fpu64\libpic32.a(write.o)
 .comment       0x00000000000000f1       0x2c c:/program files/microchip/xc32/v4.21/bin/bin/../../lib/gcc/pic32mx/8.3.1/../../../../pic32mx/lib/fpu64\libpic32.a(lseek.o)
 .comment       0x00000000000000f1       0x2c c:/program files/microchip/xc32/v4.21/bin/bin/../../lib/gcc/pic32mx/8.3.1/../../../../pic32mx/lib/fpu64\libpic32.a(close.o)
 .comment       0x00000000000000f1       0x2c c:/program files/microchip/xc32/v4.21/bin/bin/../../lib/gcc/pic32mx/8.3.1/../../../../pic32mx/lib/fpu64\libpic32.a(errno.o)

.debug
 *.elf(.debug)
 *(.debug)

.line
 *.elf(.line)
 *(.line)

.debug_srcinfo
 *.elf(.debug_srcinfo)
 *(.debug_srcinfo)

.debug_sfnames
 *.elf(.debug_sfnames)
 *(.debug_sfnames)

.debug_aranges  0x0000000000000000     0x1a28
 *.elf(.debug_aranges)
 *(.debug_aranges)
 .debug_aranges
                0x0000000000000000       0xa8 build/pic32mzef_c2_ak4954/production/_ext/212299867/wav_dec.o
 .debug_aranges
                0x00000000000000a8      0x140 build/pic32mzef_c2_ak4954/production/_ext/1856562345/drv_ak4954.o
 .debug_aranges
                0x00000000000001e8       0xe0 build/pic32mzef_c2_ak4954/production/_ext/450163651/drv_i2s.o
 .debug_aranges
                0x00000000000002c8       0x40 build/pic32mzef_c2_ak4954/production/_ext/563155524/plib_i2s2.o
 .debug_aranges
                0x0000000000000308       0x20 build/pic32mzef_c2_ak4954/production/_ext/1477346291/bsp.o
 .debug_aranges
                0x0000000000000328       0xa0 build/pic32mzef_c2_ak4954/production/_ext/1337057836/drv_i2c.o
 .debug_aranges
                0x00000000000003c8       0x98 build/pic32mzef_c2_ak4954/production/_ext/1500991179/drv_sdspi.o
 .debug_aranges
                0x0000000000000460       0x70 build/pic32mzef_c2_ak4954/production/_ext/1500991179/drv_sdspi_plib_interface.o
 .debug_aranges
                0x00000000000004d0       0x20 build/pic32mzef_c2_ak4954/production/_ext/1500991179/drv_sdspi_file_system.o
 .debug_aranges
                0x00000000000004f0       0xc0 build/pic32mzef_c2_ak4954/production/_ext/617362437/plib_cache.o
 .debug_aranges
                0x00000000000005b0       0x20 build/pic32mzef_c2_ak4954/production/_ext/617362437/plib_cache_pic32mz.o
 .debug_aranges
                0x00000000000005d0       0x20 build/pic32mzef_c2_ak4954/production/_ext/1435277349/plib_clk.o
 .debug_aranges
                0x00000000000005f0       0x68 build/pic32mzef_c2_ak4954/production/_ext/131824383/plib_coretimer.o
 .debug_aranges
                0x0000000000000658       0x90 build/pic32mzef_c2_ak4954/production/_ext/1543894318/plib_dmac.o
 .debug_aranges
                0x00000000000006e8       0x68 build/pic32mzef_c2_ak4954/production/_ext/1543855630/plib_evic.o
 .debug_aranges
                0x0000000000000750       0x60 build/pic32mzef_c2_ak4954/production/_ext/1543801802/plib_gpio.o
 .debug_aranges
                0x00000000000007b0       0x70 build/pic32mzef_c2_ak4954/production/_ext/232538270/plib_i2c1_master.o
 .debug_aranges
                0x0000000000000820       0x68 build/pic32mzef_c2_ak4954/production/_ext/603446335/plib_spi1_master.o
 .debug_aranges
                0x0000000000000888       0x80 build/pic32mzef_c2_ak4954/production/_ext/1543398859/plib_uart6.o
 .debug_aranges
                0x0000000000000908       0x28 build/pic32mzef_c2_ak4954/production/_ext/1888667843/xc32_monitor.o
 .debug_aranges
                0x0000000000000930       0x80 build/pic32mzef_c2_ak4954/production/_ext/839150702/sys_cache.o
 .debug_aranges
                0x00000000000009b0       0x30 build/pic32mzef_c2_ak4954/production/_ext/2050519836/sys_dma.o
 .debug_aranges
                0x00000000000009e0      0x220 build/pic32mzef_c2_ak4954/production/_ext/1867241316/ff.o
 .debug_aranges
                0x0000000000000c00       0x30 build/pic32mzef_c2_ak4954/production/_ext/1867241316/ffunicode.o
 .debug_aranges
                0x0000000000000c30       0x60 build/pic32mzef_c2_ak4954/production/_ext/1892335699/diskio.o
 .debug_aranges
                0x0000000000000c90      0x178 build/pic32mzef_c2_ak4954/production/_ext/344840758/sys_fs.o
 .debug_aranges
                0x0000000000000e08       0xa0 build/pic32mzef_c2_ak4954/production/_ext/344840758/sys_fs_media_manager.o
 .debug_aranges
                0x0000000000000ea8      0x130 build/pic32mzef_c2_ak4954/production/_ext/344840758/sys_fs_fat_interface.o
 .debug_aranges
                0x0000000000000fd8       0x40 build/pic32mzef_c2_ak4954/production/_ext/386225584/sys_int.o
 .debug_aranges
                0x0000000000001018      0x130 build/pic32mzef_c2_ak4954/production/_ext/784026422/sys_time.o
 .debug_aranges
                0x0000000000001148       0x20 build/pic32mzef_c2_ak4954/production/_ext/79412797/initialization.o
 .debug_aranges
                0x0000000000001168       0x50 build/pic32mzef_c2_ak4954/production/_ext/79412797/interrupts.o
 .debug_aranges
                0x00000000000011b8       0x38 build/pic32mzef_c2_ak4954/production/_ext/79412797/exceptions.o
 .debug_aranges
                0x00000000000011f0       0x20 build/pic32mzef_c2_ak4954/production/_ext/79412797/tasks.o
 .debug_aranges
                0x0000000000001210      0x1c0 build/pic32mzef_c2_ak4954/production/_ext/1360937237/app_sdcard_audio_task.o
 .debug_aranges
                0x00000000000013d0       0x48 build/pic32mzef_c2_ak4954/production/_ext/1360937237/decoder.o
 .debug_aranges
                0x0000000000001418       0x20 build/pic32mzef_c2_ak4954/production/_ext/1360937237/main.o
 .debug_aranges
                0x0000000000001438       0x40 build/pic32mzef_c2_ak4954/production/_ext/1360937237/app.o
 .debug_aranges
                0x0000000000001478       0x20 c:/program files/microchip/xc32/v4.21/bin/bin/../../lib/gcc/pic32mx/8.3.1/fpu64\libgcc.a(_udivdi3.o)
 .debug_aranges
                0x0000000000001498       0x20 c:/program files/microchip/xc32/v4.21/bin/bin/../../lib/gcc/pic32mx/8.3.1/../../../../pic32mx/lib/fpu64\libpic32.a(default-on-reset.o)
 .debug_aranges
                0x00000000000014b8       0x20 c:/program files/microchip/xc32/v4.21/bin/bin/../../lib/gcc/pic32mx/8.3.1/../../../../pic32mx/lib/fpu64\libpic32.a(default-on-bootstrap.o)
 .debug_aranges
                0x00000000000014d8       0x20 c:/program files/microchip/xc32/v4.21/bin/bin/../../lib/gcc/pic32mx/8.3.1/../../../../pic32mx/lib/fpu64\libpic32.a(defaultinterrupt.o)
 .debug_aranges
                0x00000000000014f8       0x28 c:/program files/microchip/xc32/v4.21/bin/bin/../../lib/gcc/pic32mx/8.3.1/../../../../pic32mx/lib/fpu64\libc-musl.a(__sio_printf_dosux.o)
 .debug_aranges
                0x0000000000001520       0x20 c:/program files/microchip/xc32/v4.21/bin/bin/../../lib/gcc/pic32mx/8.3.1/../../../../pic32mx/lib/fpu64\libc-musl.a(__fmt_d.o)
 .debug_aranges
                0x0000000000001540       0x20 c:/program files/microchip/xc32/v4.21/bin/bin/../../lib/gcc/pic32mx/8.3.1/../../../../pic32mx/lib/fpu64\libc-musl.a(__fmt_o.o)
 .debug_aranges
                0x0000000000001560       0x20 c:/program files/microchip/xc32/v4.21/bin/bin/../../lib/gcc/pic32mx/8.3.1/../../../../pic32mx/lib/fpu64\libc-musl.a(__fmt_s.o)
 .debug_aranges
                0x0000000000001580       0x28 c:/program files/microchip/xc32/v4.21/bin/bin/../../lib/gcc/pic32mx/8.3.1/../../../../pic32mx/lib/fpu64\libc-musl.a(__fmt_u.o)
 .debug_aranges
                0x00000000000015a8       0x20 c:/program files/microchip/xc32/v4.21/bin/bin/../../lib/gcc/pic32mx/8.3.1/../../../../pic32mx/lib/fpu64\libc-musl.a(__fmt_x.o)
 .debug_aranges
                0x00000000000015c8       0x20 c:/program files/microchip/xc32/v4.21/bin/bin/../../lib/gcc/pic32mx/8.3.1/../../../../pic32mx/lib/fpu64\libc-musl.a(__pop_int.o)
 .debug_aranges
                0x00000000000015e8       0x20 c:/program files/microchip/xc32/v4.21/bin/bin/../../lib/gcc/pic32mx/8.3.1/../../../../pic32mx/lib/fpu64\libc-musl.a(__pop_ptr.o)
 .debug_aranges
                0x0000000000001608       0x50 c:/program files/microchip/xc32/v4.21/bin/bin/../../lib/gcc/pic32mx/8.3.1/../../../../pic32mx/lib/fpu64\libc-musl.a(__printf_core.o)
 .debug_aranges
                0x0000000000001658       0x28 c:/program files/microchip/xc32/v4.21/bin/bin/../../lib/gcc/pic32mx/8.3.1/../../../../pic32mx/lib/fpu64\libc-musl.a(stdout.o)
 .debug_aranges
                0x0000000000001680       0x20 c:/program files/microchip/xc32/v4.21/bin/bin/../../lib/gcc/pic32mx/8.3.1/../../../../pic32mx/lib/fpu64\libc-musl.a(atoi.o)
 .debug_aranges
                0x00000000000016a0       0x20 c:/program files/microchip/xc32/v4.21/bin/bin/../../lib/gcc/pic32mx/8.3.1/../../../../pic32mx/lib/fpu64\libc-musl.a(memmove.o)
 .debug_aranges
                0x00000000000016c0       0x20 c:/program files/microchip/xc32/v4.21/bin/bin/../../lib/gcc/pic32mx/8.3.1/../../../../pic32mx/lib/fpu64\libc-musl.a(strcat.o)
 .debug_aranges
                0x00000000000016e0       0x20 c:/program files/microchip/xc32/v4.21/bin/bin/../../lib/gcc/pic32mx/8.3.1/../../../../pic32mx/lib/fpu64\libc-musl.a(strncmp.o)
 .debug_aranges
                0x0000000000001700       0x28 c:/program files/microchip/xc32/v4.21/bin/bin/../../lib/gcc/pic32mx/8.3.1/../../../../pic32mx/lib/fpu64\libc-musl.a(tolower.o)
 .debug_aranges
                0x0000000000001728       0x28 c:/program files/microchip/xc32/v4.21/bin/bin/../../lib/gcc/pic32mx/8.3.1/../../../../pic32mx/lib/fpu64\libc-musl.a(toupper.o)
 .debug_aranges
                0x0000000000001750       0x20 c:/program files/microchip/xc32/v4.21/bin/bin/../../lib/gcc/pic32mx/8.3.1/../../../../pic32mx/lib/fpu64\libc-musl.a(__int_vfprintf.o)
 .debug_aranges
                0x0000000000001770       0x30 c:/program files/microchip/xc32/v4.21/bin/bin/../../lib/gcc/pic32mx/8.3.1/../../../../pic32mx/lib/fpu64\libc-musl.a(__fopen.o)
 .debug_aranges
                0x00000000000017a0       0x28 c:/program files/microchip/xc32/v4.21/bin/bin/../../lib/gcc/pic32mx/8.3.1/../../../../pic32mx/lib/fpu64\libc-musl.a(__io_init_needed.o)
 .debug_aranges
                0x00000000000017c8       0x28 c:/program files/microchip/xc32/v4.21/bin/bin/../../lib/gcc/pic32mx/8.3.1/../../../../pic32mx/lib/fpu64\libc-musl.a(__out.o)
 .debug_aranges
                0x00000000000017f0       0x20 c:/program files/microchip/xc32/v4.21/bin/bin/../../lib/gcc/pic32mx/8.3.1/../../../../pic32mx/lib/fpu64\libc-musl.a(__pop_float.o)
 .debug_aranges
                0x0000000000001810       0x28 c:/program files/microchip/xc32/v4.21/bin/bin/../../lib/gcc/pic32mx/8.3.1/../../../../pic32mx/lib/fpu64\libc-musl.a(__stdio_close.o)
 .debug_aranges
                0x0000000000001838       0x70 c:/program files/microchip/xc32/v4.21/bin/bin/../../lib/gcc/pic32mx/8.3.1/../../../../pic32mx/lib/fpu64\libc-musl.a(malloc.o)
 .debug_aranges
                0x00000000000018a8       0x20 c:/program files/microchip/xc32/v4.21/bin/bin/../../lib/gcc/pic32mx/8.3.1/../../../../pic32mx/lib/fpu64\libc-musl.a(expand_heap.o)
 .debug_aranges
                0x00000000000018c8       0x28 c:/program files/microchip/xc32/v4.21/bin/bin/../../lib/gcc/pic32mx/8.3.1/../../../../pic32mx/lib/fpu64\libc-musl.a(__init_stdio.o)
 .debug_aranges
                0x00000000000018f0       0x20 c:/program files/microchip/xc32/v4.21/bin/bin/../../lib/gcc/pic32mx/8.3.1/../../../../pic32mx/lib/fpu64\libc-musl.a(__io_file_needed.o)
 .debug_aranges
                0x0000000000001910       0x18 c:/program files/microchip/xc32/v4.21/bin/bin/../../lib/gcc/pic32mx/8.3.1/../../../../pic32mx/lib/fpu64\libc-musl.a(libc.o)
 .debug_aranges
                0x0000000000001928       0x20 c:/program files/microchip/xc32/v4.21/bin/bin/../../lib/gcc/pic32mx/8.3.1/fpu64\libgcc.a(_lshrdi3.o)
 .debug_aranges
                0x0000000000001948       0x20 c:/program files/microchip/xc32/v4.21/bin/bin/../../lib/gcc/pic32mx/8.3.1/fpu64\libgcc.a(_ashldi3.o)
 .debug_aranges
                0x0000000000001968       0x20 c:/program files/microchip/xc32/v4.21/bin/bin/../../lib/gcc/pic32mx/8.3.1/fpu64\libgcc.a(_umoddi3.o)
 .debug_aranges
                0x0000000000001988       0x40 c:/program files/microchip/xc32/v4.21/bin/bin/../../lib/gcc/pic32mx/8.3.1/../../../../pic32mx/lib/fpu64\libpic32.a(sbrk.o)
 .debug_aranges
                0x00000000000019c8       0x20 c:/program files/microchip/xc32/v4.21/bin/bin/../../lib/gcc/pic32mx/8.3.1/../../../../pic32mx/lib/fpu64\libpic32.a(write.o)
 .debug_aranges
                0x00000000000019e8       0x20 c:/program files/microchip/xc32/v4.21/bin/bin/../../lib/gcc/pic32mx/8.3.1/../../../../pic32mx/lib/fpu64\libpic32.a(lseek.o)
 .debug_aranges
                0x0000000000001a08       0x20 c:/program files/microchip/xc32/v4.21/bin/bin/../../lib/gcc/pic32mx/8.3.1/../../../../pic32mx/lib/fpu64\libpic32.a(close.o)

.debug_pubnames
 *.elf(.debug_pubnames)
 *(.debug_pubnames)

.debug_info     0x0000000000000000    0x2f3f7
 *.elf(.debug_info .gnu.linkonce.wi.*)
 *(.debug_info .gnu.linkonce.wi.*)
 .debug_info    0x0000000000000000      0x7d2 build/pic32mzef_c2_ak4954/production/_ext/212299867/wav_dec.o
 .debug_info    0x00000000000007d2     0x3ed1 build/pic32mzef_c2_ak4954/production/_ext/1856562345/drv_ak4954.o
 .debug_info    0x00000000000046a3     0x1e26 build/pic32mzef_c2_ak4954/production/_ext/450163651/drv_i2s.o
 .debug_info    0x00000000000064c9      0x55d build/pic32mzef_c2_ak4954/production/_ext/563155524/plib_i2s2.o
 .debug_info    0x0000000000006a26       0xd2 build/pic32mzef_c2_ak4954/production/_ext/1477346291/bsp.o
 .debug_info    0x0000000000006af8     0x20af build/pic32mzef_c2_ak4954/production/_ext/1337057836/drv_i2c.o
 .debug_info    0x0000000000008ba7     0x373b build/pic32mzef_c2_ak4954/production/_ext/1500991179/drv_sdspi.o
 .debug_info    0x000000000000c2e2     0x1d2e build/pic32mzef_c2_ak4954/production/_ext/1500991179/drv_sdspi_plib_interface.o
 .debug_info    0x000000000000e010      0x574 build/pic32mzef_c2_ak4954/production/_ext/1500991179/drv_sdspi_file_system.o
 .debug_info    0x000000000000e584      0x690 build/pic32mzef_c2_ak4954/production/_ext/617362437/plib_cache.o
 .debug_info    0x000000000000ec14       0x26 build/pic32mzef_c2_ak4954/production/_ext/617362437/plib_cache_pic32mz.o
 .debug_info    0x000000000000ec3a      0x290 build/pic32mzef_c2_ak4954/production/_ext/1435277349/plib_clk.o
 .debug_info    0x000000000000eeca      0x5b6 build/pic32mzef_c2_ak4954/production/_ext/131824383/plib_coretimer.o
 .debug_info    0x000000000000f480      0xe09 build/pic32mzef_c2_ak4954/production/_ext/1543894318/plib_dmac.o
 .debug_info    0x0000000000010289      0x84f build/pic32mzef_c2_ak4954/production/_ext/1543855630/plib_evic.o
 .debug_info    0x0000000000010ad8      0x72a build/pic32mzef_c2_ak4954/production/_ext/1543801802/plib_gpio.o
 .debug_info    0x0000000000011202      0x60a build/pic32mzef_c2_ak4954/production/_ext/232538270/plib_i2c1_master.o
 .debug_info    0x000000000001180c      0x61b build/pic32mzef_c2_ak4954/production/_ext/603446335/plib_spi1_master.o
 .debug_info    0x0000000000011e27      0x5f2 build/pic32mzef_c2_ak4954/production/_ext/1543398859/plib_uart6.o
 .debug_info    0x0000000000012419       0x8a build/pic32mzef_c2_ak4954/production/_ext/1888667843/xc32_monitor.o
 .debug_info    0x00000000000124a3      0x3b9 build/pic32mzef_c2_ak4954/production/_ext/839150702/sys_cache.o
 .debug_info    0x000000000001285c      0x3bb build/pic32mzef_c2_ak4954/production/_ext/2050519836/sys_dma.o
 .debug_info    0x0000000000012c17     0x62e7 build/pic32mzef_c2_ak4954/production/_ext/1867241316/ff.o
 .debug_info    0x0000000000018efe      0x2ac build/pic32mzef_c2_ak4954/production/_ext/1867241316/ffunicode.o
 .debug_info    0x00000000000191aa      0xa64 build/pic32mzef_c2_ak4954/production/_ext/1892335699/diskio.o
 .debug_info    0x0000000000019c0e     0x3c7b build/pic32mzef_c2_ak4954/production/_ext/344840758/sys_fs.o
 .debug_info    0x000000000001d889     0x1ad0 build/pic32mzef_c2_ak4954/production/_ext/344840758/sys_fs_media_manager.o
 .debug_info    0x000000000001f359     0x1d2c build/pic32mzef_c2_ak4954/production/_ext/344840758/sys_fs_fat_interface.o
 .debug_info    0x0000000000021085      0x77e build/pic32mzef_c2_ak4954/production/_ext/386225584/sys_int.o
 .debug_info    0x0000000000021803     0x21f4 build/pic32mzef_c2_ak4954/production/_ext/784026422/sys_time.o
 .debug_info    0x00000000000239f7     0x266c build/pic32mzef_c2_ak4954/production/_ext/79412797/initialization.o
 .debug_info    0x0000000000026063      0x1e3 build/pic32mzef_c2_ak4954/production/_ext/79412797/interrupts.o
 .debug_info    0x0000000000026246      0x1f5 build/pic32mzef_c2_ak4954/production/_ext/79412797/exceptions.o
 .debug_info    0x000000000002643b      0x18c build/pic32mzef_c2_ak4954/production/_ext/79412797/tasks.o
 .debug_info    0x00000000000265c7     0x2197 build/pic32mzef_c2_ak4954/production/_ext/1360937237/app_sdcard_audio_task.o
 .debug_info    0x000000000002875e      0x898 build/pic32mzef_c2_ak4954/production/_ext/1360937237/decoder.o
 .debug_info    0x0000000000028ff6      0x1e6 build/pic32mzef_c2_ak4954/production/_ext/1360937237/main.o
 .debug_info    0x00000000000291dc      0x4ac build/pic32mzef_c2_ak4954/production/_ext/1360937237/app.o
 .debug_info    0x0000000000029688      0x6ca c:/program files/microchip/xc32/v4.21/bin/bin/../../lib/gcc/pic32mx/8.3.1/fpu64\libgcc.a(_udivdi3.o)
 .debug_info    0x0000000000029d52       0x3f c:/program files/microchip/xc32/v4.21/bin/bin/../../lib/gcc/pic32mx/8.3.1/../../../../pic32mx/lib/fpu64\libpic32.a(default-on-reset.o)
 .debug_info    0x0000000000029d91       0x3f c:/program files/microchip/xc32/v4.21/bin/bin/../../lib/gcc/pic32mx/8.3.1/../../../../pic32mx/lib/fpu64\libpic32.a(default-on-bootstrap.o)
 .debug_info    0x0000000000029dd0       0x40 c:/program files/microchip/xc32/v4.21/bin/bin/../../lib/gcc/pic32mx/8.3.1/../../../../pic32mx/lib/fpu64\libpic32.a(defaultinterrupt.o)
 .debug_info    0x0000000000029e10      0x1fa c:/program files/microchip/xc32/v4.21/bin/bin/../../lib/gcc/pic32mx/8.3.1/../../../../pic32mx/lib/fpu64\libc-musl.a(__sio_printf_dosux.o)
 .debug_info    0x000000000002a00a      0x327 c:/program files/microchip/xc32/v4.21/bin/bin/../../lib/gcc/pic32mx/8.3.1/../../../../pic32mx/lib/fpu64\libc-musl.a(__fmt_d.o)
 .debug_info    0x000000000002a331      0x2f8 c:/program files/microchip/xc32/v4.21/bin/bin/../../lib/gcc/pic32mx/8.3.1/../../../../pic32mx/lib/fpu64\libc-musl.a(__fmt_o.o)
 .debug_info    0x000000000002a629      0x2a9 c:/program files/microchip/xc32/v4.21/bin/bin/../../lib/gcc/pic32mx/8.3.1/../../../../pic32mx/lib/fpu64\libc-musl.a(__fmt_s.o)
 .debug_info    0x000000000002a8d2      0x3cb c:/program files/microchip/xc32/v4.21/bin/bin/../../lib/gcc/pic32mx/8.3.1/../../../../pic32mx/lib/fpu64\libc-musl.a(__fmt_u.o)
 .debug_info    0x000000000002ac9d      0x322 c:/program files/microchip/xc32/v4.21/bin/bin/../../lib/gcc/pic32mx/8.3.1/../../../../pic32mx/lib/fpu64\libc-musl.a(__fmt_x.o)
 .debug_info    0x000000000002afbf      0x14e c:/program files/microchip/xc32/v4.21/bin/bin/../../lib/gcc/pic32mx/8.3.1/../../../../pic32mx/lib/fpu64\libc-musl.a(__pop_int.o)
 .debug_info    0x000000000002b10d      0x15e c:/program files/microchip/xc32/v4.21/bin/bin/../../lib/gcc/pic32mx/8.3.1/../../../../pic32mx/lib/fpu64\libc-musl.a(__pop_ptr.o)
 .debug_info    0x000000000002b26b      0x9ee c:/program files/microchip/xc32/v4.21/bin/bin/../../lib/gcc/pic32mx/8.3.1/../../../../pic32mx/lib/fpu64\libc-musl.a(__printf_core.o)
 .debug_info    0x000000000002bc59      0x3c9 c:/program files/microchip/xc32/v4.21/bin/bin/../../lib/gcc/pic32mx/8.3.1/../../../../pic32mx/lib/fpu64\libc-musl.a(stdout.o)
 .debug_info    0x000000000002c022       0xee c:/program files/microchip/xc32/v4.21/bin/bin/../../lib/gcc/pic32mx/8.3.1/../../../../pic32mx/lib/fpu64\libc-musl.a(atoi.o)
 .debug_info    0x000000000002c110       0xee c:/program files/microchip/xc32/v4.21/bin/bin/../../lib/gcc/pic32mx/8.3.1/../../../../pic32mx/lib/fpu64\libc-musl.a(memmove.o)
 .debug_info    0x000000000002c1fe       0xd7 c:/program files/microchip/xc32/v4.21/bin/bin/../../lib/gcc/pic32mx/8.3.1/../../../../pic32mx/lib/fpu64\libc-musl.a(strcat.o)
 .debug_info    0x000000000002c2d5       0xdd c:/program files/microchip/xc32/v4.21/bin/bin/../../lib/gcc/pic32mx/8.3.1/../../../../pic32mx/lib/fpu64\libc-musl.a(strncmp.o)
 .debug_info    0x000000000002c3b2      0x11b c:/program files/microchip/xc32/v4.21/bin/bin/../../lib/gcc/pic32mx/8.3.1/../../../../pic32mx/lib/fpu64\libc-musl.a(tolower.o)
 .debug_info    0x000000000002c4cd      0x11b c:/program files/microchip/xc32/v4.21/bin/bin/../../lib/gcc/pic32mx/8.3.1/../../../../pic32mx/lib/fpu64\libc-musl.a(toupper.o)
 .debug_info    0x000000000002c5e8      0x1e0 c:/program files/microchip/xc32/v4.21/bin/bin/../../lib/gcc/pic32mx/8.3.1/../../../../pic32mx/lib/fpu64\libc-musl.a(__int_vfprintf.o)
 .debug_info    0x000000000002c7c8      0x2d0 c:/program files/microchip/xc32/v4.21/bin/bin/../../lib/gcc/pic32mx/8.3.1/../../../../pic32mx/lib/fpu64\libc-musl.a(__fopen.o)
 .debug_info    0x000000000002ca98       0xdf c:/program files/microchip/xc32/v4.21/bin/bin/../../lib/gcc/pic32mx/8.3.1/../../../../pic32mx/lib/fpu64\libc-musl.a(__io_init_needed.o)
 .debug_info    0x000000000002cb77      0x29f c:/program files/microchip/xc32/v4.21/bin/bin/../../lib/gcc/pic32mx/8.3.1/../../../../pic32mx/lib/fpu64\libc-musl.a(__out.o)
 .debug_info    0x000000000002ce16      0x134 c:/program files/microchip/xc32/v4.21/bin/bin/../../lib/gcc/pic32mx/8.3.1/../../../../pic32mx/lib/fpu64\libc-musl.a(__pop_float.o)
 .debug_info    0x000000000002cf4a      0x3f6 c:/program files/microchip/xc32/v4.21/bin/bin/../../lib/gcc/pic32mx/8.3.1/../../../../pic32mx/lib/fpu64\libc-musl.a(__stdio_close.o)
 .debug_info    0x000000000002d340      0xfed c:/program files/microchip/xc32/v4.21/bin/bin/../../lib/gcc/pic32mx/8.3.1/../../../../pic32mx/lib/fpu64\libc-musl.a(malloc.o)
 .debug_info    0x000000000002e32d      0x105 c:/program files/microchip/xc32/v4.21/bin/bin/../../lib/gcc/pic32mx/8.3.1/../../../../pic32mx/lib/fpu64\libc-musl.a(expand_heap.o)
 .debug_info    0x000000000002e432       0xb9 c:/program files/microchip/xc32/v4.21/bin/bin/../../lib/gcc/pic32mx/8.3.1/../../../../pic32mx/lib/fpu64\libc-musl.a(__init_stdio.o)
 .debug_info    0x000000000002e4eb       0xaf c:/program files/microchip/xc32/v4.21/bin/bin/../../lib/gcc/pic32mx/8.3.1/../../../../pic32mx/lib/fpu64\libc-musl.a(__io_file_needed.o)
 .debug_info    0x000000000002e59a      0x276 c:/program files/microchip/xc32/v4.21/bin/bin/../../lib/gcc/pic32mx/8.3.1/../../../../pic32mx/lib/fpu64\libc-musl.a(libc.o)
 .debug_info    0x000000000002e810      0x1aa c:/program files/microchip/xc32/v4.21/bin/bin/../../lib/gcc/pic32mx/8.3.1/fpu64\libgcc.a(_lshrdi3.o)
 .debug_info    0x000000000002e9ba      0x1aa c:/program files/microchip/xc32/v4.21/bin/bin/../../lib/gcc/pic32mx/8.3.1/fpu64\libgcc.a(_ashldi3.o)
 .debug_info    0x000000000002eb64      0x73e c:/program files/microchip/xc32/v4.21/bin/bin/../../lib/gcc/pic32mx/8.3.1/fpu64\libgcc.a(_umoddi3.o)
 .debug_info    0x000000000002f2a2       0x97 c:/program files/microchip/xc32/v4.21/bin/bin/../../lib/gcc/pic32mx/8.3.1/../../../../pic32mx/lib/fpu64\libpic32.a(sbrk.o)
 .debug_info    0x000000000002f339       0x40 c:/program files/microchip/xc32/v4.21/bin/bin/../../lib/gcc/pic32mx/8.3.1/../../../../pic32mx/lib/fpu64\libpic32.a(write.o)
 .debug_info    0x000000000002f379       0x3f c:/program files/microchip/xc32/v4.21/bin/bin/../../lib/gcc/pic32mx/8.3.1/../../../../pic32mx/lib/fpu64\libpic32.a(lseek.o)
 .debug_info    0x000000000002f3b8       0x3f c:/program files/microchip/xc32/v4.21/bin/bin/../../lib/gcc/pic32mx/8.3.1/../../../../pic32mx/lib/fpu64\libpic32.a(close.o)

.debug_abbrev   0x0000000000000000     0x7acf
 *.elf(.debug_abbrev)
 *(.debug_abbrev)
 .debug_abbrev  0x0000000000000000      0x1ed build/pic32mzef_c2_ak4954/production/_ext/212299867/wav_dec.o
 .debug_abbrev  0x00000000000001ed      0x45e build/pic32mzef_c2_ak4954/production/_ext/1856562345/drv_ak4954.o
 .debug_abbrev  0x000000000000064b      0x3d9 build/pic32mzef_c2_ak4954/production/_ext/450163651/drv_i2s.o
 .debug_abbrev  0x0000000000000a24      0x151 build/pic32mzef_c2_ak4954/production/_ext/563155524/plib_i2s2.o
 .debug_abbrev  0x0000000000000b75       0x6f build/pic32mzef_c2_ak4954/production/_ext/1477346291/bsp.o
 .debug_abbrev  0x0000000000000be4      0x413 build/pic32mzef_c2_ak4954/production/_ext/1337057836/drv_i2c.o
 .debug_abbrev  0x0000000000000ff7      0x50c build/pic32mzef_c2_ak4954/production/_ext/1500991179/drv_sdspi.o
 .debug_abbrev  0x0000000000001503      0x30e build/pic32mzef_c2_ak4954/production/_ext/1500991179/drv_sdspi_plib_interface.o
 .debug_abbrev  0x0000000000001811      0x167 build/pic32mzef_c2_ak4954/production/_ext/1500991179/drv_sdspi_file_system.o
 .debug_abbrev  0x0000000000001978      0x172 build/pic32mzef_c2_ak4954/production/_ext/617362437/plib_cache.o
 .debug_abbrev  0x0000000000001aea       0x14 build/pic32mzef_c2_ak4954/production/_ext/617362437/plib_cache_pic32mz.o
 .debug_abbrev  0x0000000000001afe       0xe3 build/pic32mzef_c2_ak4954/production/_ext/1435277349/plib_clk.o
 .debug_abbrev  0x0000000000001be1      0x1de build/pic32mzef_c2_ak4954/production/_ext/131824383/plib_coretimer.o
 .debug_abbrev  0x0000000000001dbf      0x2de build/pic32mzef_c2_ak4954/production/_ext/1543894318/plib_dmac.o
 .debug_abbrev  0x000000000000209d      0x102 build/pic32mzef_c2_ak4954/production/_ext/1543855630/plib_evic.o
 .debug_abbrev  0x000000000000219f      0x1c0 build/pic32mzef_c2_ak4954/production/_ext/1543801802/plib_gpio.o
 .debug_abbrev  0x000000000000235f      0x1ce build/pic32mzef_c2_ak4954/production/_ext/232538270/plib_i2c1_master.o
 .debug_abbrev  0x000000000000252d      0x21c build/pic32mzef_c2_ak4954/production/_ext/603446335/plib_spi1_master.o
 .debug_abbrev  0x0000000000002749      0x218 build/pic32mzef_c2_ak4954/production/_ext/1543398859/plib_uart6.o
 .debug_abbrev  0x0000000000002961       0x88 build/pic32mzef_c2_ak4954/production/_ext/1888667843/xc32_monitor.o
 .debug_abbrev  0x00000000000029e9       0xd5 build/pic32mzef_c2_ak4954/production/_ext/839150702/sys_cache.o
 .debug_abbrev  0x0000000000002abe      0x148 build/pic32mzef_c2_ak4954/production/_ext/2050519836/sys_dma.o
 .debug_abbrev  0x0000000000002c06      0x3a2 build/pic32mzef_c2_ak4954/production/_ext/1867241316/ff.o
 .debug_abbrev  0x0000000000002fa8      0x101 build/pic32mzef_c2_ak4954/production/_ext/1867241316/ffunicode.o
 .debug_abbrev  0x00000000000030a9      0x317 build/pic32mzef_c2_ak4954/production/_ext/1892335699/diskio.o
 .debug_abbrev  0x00000000000033c0      0x45a build/pic32mzef_c2_ak4954/production/_ext/344840758/sys_fs.o
 .debug_abbrev  0x000000000000381a      0x43b build/pic32mzef_c2_ak4954/production/_ext/344840758/sys_fs_media_manager.o
 .debug_abbrev  0x0000000000003c55      0x2ce build/pic32mzef_c2_ak4954/production/_ext/344840758/sys_fs_fat_interface.o
 .debug_abbrev  0x0000000000003f23      0x156 build/pic32mzef_c2_ak4954/production/_ext/386225584/sys_int.o
 .debug_abbrev  0x0000000000004079      0x517 build/pic32mzef_c2_ak4954/production/_ext/784026422/sys_time.o
 .debug_abbrev  0x0000000000004590      0x2f7 build/pic32mzef_c2_ak4954/production/_ext/79412797/initialization.o
 .debug_abbrev  0x0000000000004887       0x67 build/pic32mzef_c2_ak4954/production/_ext/79412797/interrupts.o
 .debug_abbrev  0x00000000000048ee       0x8c build/pic32mzef_c2_ak4954/production/_ext/79412797/exceptions.o
 .debug_abbrev  0x000000000000497a       0xbd build/pic32mzef_c2_ak4954/production/_ext/79412797/tasks.o
 .debug_abbrev  0x0000000000004a37      0x4a5 build/pic32mzef_c2_ak4954/production/_ext/1360937237/app_sdcard_audio_task.o
 .debug_abbrev  0x0000000000004edc      0x21b build/pic32mzef_c2_ak4954/production/_ext/1360937237/decoder.o
 .debug_abbrev  0x00000000000050f7      0x104 build/pic32mzef_c2_ak4954/production/_ext/1360937237/main.o
 .debug_abbrev  0x00000000000051fb      0x1e8 build/pic32mzef_c2_ak4954/production/_ext/1360937237/app.o
 .debug_abbrev  0x00000000000053e3      0x184 c:/program files/microchip/xc32/v4.21/bin/bin/../../lib/gcc/pic32mx/8.3.1/fpu64\libgcc.a(_udivdi3.o)
 .debug_abbrev  0x0000000000005567       0x2e c:/program files/microchip/xc32/v4.21/bin/bin/../../lib/gcc/pic32mx/8.3.1/../../../../pic32mx/lib/fpu64\libpic32.a(default-on-reset.o)
 .debug_abbrev  0x0000000000005595       0x2e c:/program files/microchip/xc32/v4.21/bin/bin/../../lib/gcc/pic32mx/8.3.1/../../../../pic32mx/lib/fpu64\libpic32.a(default-on-bootstrap.o)
 .debug_abbrev  0x00000000000055c3       0x31 c:/program files/microchip/xc32/v4.21/bin/bin/../../lib/gcc/pic32mx/8.3.1/../../../../pic32mx/lib/fpu64\libpic32.a(defaultinterrupt.o)
 .debug_abbrev  0x00000000000055f4      0x12b c:/program files/microchip/xc32/v4.21/bin/bin/../../lib/gcc/pic32mx/8.3.1/../../../../pic32mx/lib/fpu64\libc-musl.a(__sio_printf_dosux.o)
 .debug_abbrev  0x000000000000571f      0x161 c:/program files/microchip/xc32/v4.21/bin/bin/../../lib/gcc/pic32mx/8.3.1/../../../../pic32mx/lib/fpu64\libc-musl.a(__fmt_d.o)
 .debug_abbrev  0x0000000000005880      0x161 c:/program files/microchip/xc32/v4.21/bin/bin/../../lib/gcc/pic32mx/8.3.1/../../../../pic32mx/lib/fpu64\libc-musl.a(__fmt_o.o)
 .debug_abbrev  0x00000000000059e1      0x14c c:/program files/microchip/xc32/v4.21/bin/bin/../../lib/gcc/pic32mx/8.3.1/../../../../pic32mx/lib/fpu64\libc-musl.a(__fmt_s.o)
 .debug_abbrev  0x0000000000005b2d      0x193 c:/program files/microchip/xc32/v4.21/bin/bin/../../lib/gcc/pic32mx/8.3.1/../../../../pic32mx/lib/fpu64\libc-musl.a(__fmt_u.o)
 .debug_abbrev  0x0000000000005cc0      0x150 c:/program files/microchip/xc32/v4.21/bin/bin/../../lib/gcc/pic32mx/8.3.1/../../../../pic32mx/lib/fpu64\libc-musl.a(__fmt_x.o)
 .debug_abbrev  0x0000000000005e10       0xc3 c:/program files/microchip/xc32/v4.21/bin/bin/../../lib/gcc/pic32mx/8.3.1/../../../../pic32mx/lib/fpu64\libc-musl.a(__pop_int.o)
 .debug_abbrev  0x0000000000005ed3       0xd7 c:/program files/microchip/xc32/v4.21/bin/bin/../../lib/gcc/pic32mx/8.3.1/../../../../pic32mx/lib/fpu64\libc-musl.a(__pop_ptr.o)
 .debug_abbrev  0x0000000000005faa      0x318 c:/program files/microchip/xc32/v4.21/bin/bin/../../lib/gcc/pic32mx/8.3.1/../../../../pic32mx/lib/fpu64\libc-musl.a(__printf_core.o)
 .debug_abbrev  0x00000000000062c2      0x17f c:/program files/microchip/xc32/v4.21/bin/bin/../../lib/gcc/pic32mx/8.3.1/../../../../pic32mx/lib/fpu64\libc-musl.a(stdout.o)
 .debug_abbrev  0x0000000000006441       0xc4 c:/program files/microchip/xc32/v4.21/bin/bin/../../lib/gcc/pic32mx/8.3.1/../../../../pic32mx/lib/fpu64\libc-musl.a(atoi.o)
 .debug_abbrev  0x0000000000006505       0x9d c:/program files/microchip/xc32/v4.21/bin/bin/../../lib/gcc/pic32mx/8.3.1/../../../../pic32mx/lib/fpu64\libc-musl.a(memmove.o)
 .debug_abbrev  0x00000000000065a2       0xaf c:/program files/microchip/xc32/v4.21/bin/bin/../../lib/gcc/pic32mx/8.3.1/../../../../pic32mx/lib/fpu64\libc-musl.a(strcat.o)
 .debug_abbrev  0x0000000000006651       0xa2 c:/program files/microchip/xc32/v4.21/bin/bin/../../lib/gcc/pic32mx/8.3.1/../../../../pic32mx/lib/fpu64\libc-musl.a(strncmp.o)
 .debug_abbrev  0x00000000000066f3       0xf1 c:/program files/microchip/xc32/v4.21/bin/bin/../../lib/gcc/pic32mx/8.3.1/../../../../pic32mx/lib/fpu64\libc-musl.a(tolower.o)
 .debug_abbrev  0x00000000000067e4       0xf1 c:/program files/microchip/xc32/v4.21/bin/bin/../../lib/gcc/pic32mx/8.3.1/../../../../pic32mx/lib/fpu64\libc-musl.a(toupper.o)
 .debug_abbrev  0x00000000000068d5      0x118 c:/program files/microchip/xc32/v4.21/bin/bin/../../lib/gcc/pic32mx/8.3.1/../../../../pic32mx/lib/fpu64\libc-musl.a(__int_vfprintf.o)
 .debug_abbrev  0x00000000000069ed      0x168 c:/program files/microchip/xc32/v4.21/bin/bin/../../lib/gcc/pic32mx/8.3.1/../../../../pic32mx/lib/fpu64\libc-musl.a(__fopen.o)
 .debug_abbrev  0x0000000000006b55       0x81 c:/program files/microchip/xc32/v4.21/bin/bin/../../lib/gcc/pic32mx/8.3.1/../../../../pic32mx/lib/fpu64\libc-musl.a(__io_init_needed.o)
 .debug_abbrev  0x0000000000006bd6      0x17a c:/program files/microchip/xc32/v4.21/bin/bin/../../lib/gcc/pic32mx/8.3.1/../../../../pic32mx/lib/fpu64\libc-musl.a(__out.o)
 .debug_abbrev  0x0000000000006d50       0xc3 c:/program files/microchip/xc32/v4.21/bin/bin/../../lib/gcc/pic32mx/8.3.1/../../../../pic32mx/lib/fpu64\libc-musl.a(__pop_float.o)
 .debug_abbrev  0x0000000000006e13      0x15a c:/program files/microchip/xc32/v4.21/bin/bin/../../lib/gcc/pic32mx/8.3.1/../../../../pic32mx/lib/fpu64\libc-musl.a(__stdio_close.o)
 .debug_abbrev  0x0000000000006f6d      0x43a c:/program files/microchip/xc32/v4.21/bin/bin/../../lib/gcc/pic32mx/8.3.1/../../../../pic32mx/lib/fpu64\libc-musl.a(malloc.o)
 .debug_abbrev  0x00000000000073a7       0xc4 c:/program files/microchip/xc32/v4.21/bin/bin/../../lib/gcc/pic32mx/8.3.1/../../../../pic32mx/lib/fpu64\libc-musl.a(expand_heap.o)
 .debug_abbrev  0x000000000000746b       0x65 c:/program files/microchip/xc32/v4.21/bin/bin/../../lib/gcc/pic32mx/8.3.1/../../../../pic32mx/lib/fpu64\libc-musl.a(__init_stdio.o)
 .debug_abbrev  0x00000000000074d0       0x67 c:/program files/microchip/xc32/v4.21/bin/bin/../../lib/gcc/pic32mx/8.3.1/../../../../pic32mx/lib/fpu64\libc-musl.a(__io_file_needed.o)
 .debug_abbrev  0x0000000000007537       0xd4 c:/program files/microchip/xc32/v4.21/bin/bin/../../lib/gcc/pic32mx/8.3.1/../../../../pic32mx/lib/fpu64\libc-musl.a(libc.o)
 .debug_abbrev  0x000000000000760b      0x121 c:/program files/microchip/xc32/v4.21/bin/bin/../../lib/gcc/pic32mx/8.3.1/fpu64\libgcc.a(_lshrdi3.o)
 .debug_abbrev  0x000000000000772c      0x121 c:/program files/microchip/xc32/v4.21/bin/bin/../../lib/gcc/pic32mx/8.3.1/fpu64\libgcc.a(_ashldi3.o)
 .debug_abbrev  0x000000000000784d      0x19a c:/program files/microchip/xc32/v4.21/bin/bin/../../lib/gcc/pic32mx/8.3.1/fpu64\libgcc.a(_umoddi3.o)
 .debug_abbrev  0x00000000000079e7       0x5e c:/program files/microchip/xc32/v4.21/bin/bin/../../lib/gcc/pic32mx/8.3.1/../../../../pic32mx/lib/fpu64\libpic32.a(sbrk.o)
 .debug_abbrev  0x0000000000007a45       0x2e c:/program files/microchip/xc32/v4.21/bin/bin/../../lib/gcc/pic32mx/8.3.1/../../../../pic32mx/lib/fpu64\libpic32.a(write.o)
 .debug_abbrev  0x0000000000007a73       0x2e c:/program files/microchip/xc32/v4.21/bin/bin/../../lib/gcc/pic32mx/8.3.1/../../../../pic32mx/lib/fpu64\libpic32.a(lseek.o)
 .debug_abbrev  0x0000000000007aa1       0x2e c:/program files/microchip/xc32/v4.21/bin/bin/../../lib/gcc/pic32mx/8.3.1/../../../../pic32mx/lib/fpu64\libpic32.a(close.o)

.debug_line     0x0000000000000000    0x1d5e9
 *.elf(.debug_line)
 *(.debug_line)
 .debug_line    0x0000000000000000      0x5d4 build/pic32mzef_c2_ak4954/production/_ext/212299867/wav_dec.o
 .debug_line    0x00000000000005d4     0x1d5e build/pic32mzef_c2_ak4954/production/_ext/1856562345/drv_ak4954.o
 .debug_line    0x0000000000002332     0x111e build/pic32mzef_c2_ak4954/production/_ext/450163651/drv_i2s.o
 .debug_line    0x0000000000003450      0x45a build/pic32mzef_c2_ak4954/production/_ext/563155524/plib_i2s2.o
 .debug_line    0x00000000000038aa      0x148 build/pic32mzef_c2_ak4954/production/_ext/1477346291/bsp.o
 .debug_line    0x00000000000039f2      0xf76 build/pic32mzef_c2_ak4954/production/_ext/1337057836/drv_i2c.o
 .debug_line    0x0000000000004968     0x2256 build/pic32mzef_c2_ak4954/production/_ext/1500991179/drv_sdspi.o
 .debug_line    0x0000000000006bbe      0x63e build/pic32mzef_c2_ak4954/production/_ext/1500991179/drv_sdspi_plib_interface.o
 .debug_line    0x00000000000071fc      0x226 build/pic32mzef_c2_ak4954/production/_ext/1500991179/drv_sdspi_file_system.o
 .debug_line    0x0000000000007422      0x34f build/pic32mzef_c2_ak4954/production/_ext/617362437/plib_cache.o
 .debug_line    0x0000000000007771      0x214 build/pic32mzef_c2_ak4954/production/_ext/617362437/plib_cache_pic32mz.o
 .debug_line    0x0000000000007985      0x1ce build/pic32mzef_c2_ak4954/production/_ext/1435277349/plib_clk.o
 .debug_line    0x0000000000007b53      0x2dd build/pic32mzef_c2_ak4954/production/_ext/131824383/plib_coretimer.o
 .debug_line    0x0000000000007e30      0x8b8 build/pic32mzef_c2_ak4954/production/_ext/1543894318/plib_dmac.o
 .debug_line    0x00000000000086e8      0x312 build/pic32mzef_c2_ak4954/production/_ext/1543855630/plib_evic.o
 .debug_line    0x00000000000089fa      0x36b build/pic32mzef_c2_ak4954/production/_ext/1543801802/plib_gpio.o
 .debug_line    0x0000000000008d65      0x888 build/pic32mzef_c2_ak4954/production/_ext/232538270/plib_i2c1_master.o
 .debug_line    0x00000000000095ed      0x863 build/pic32mzef_c2_ak4954/production/_ext/603446335/plib_spi1_master.o
 .debug_line    0x0000000000009e50      0x555 build/pic32mzef_c2_ak4954/production/_ext/1543398859/plib_uart6.o
 .debug_line    0x000000000000a3a5       0xa8 build/pic32mzef_c2_ak4954/production/_ext/1888667843/xc32_monitor.o
 .debug_line    0x000000000000a44d      0x2fe build/pic32mzef_c2_ak4954/production/_ext/839150702/sys_cache.o
 .debug_line    0x000000000000a74b      0x1f4 build/pic32mzef_c2_ak4954/production/_ext/2050519836/sys_dma.o
 .debug_line    0x000000000000a93f     0x49ee build/pic32mzef_c2_ak4954/production/_ext/1867241316/ff.o
 .debug_line    0x000000000000f32d      0x2b4 build/pic32mzef_c2_ak4954/production/_ext/1867241316/ffunicode.o
 .debug_line    0x000000000000f5e1      0x5f9 build/pic32mzef_c2_ak4954/production/_ext/1892335699/diskio.o
 .debug_line    0x000000000000fbda     0x2f4a build/pic32mzef_c2_ak4954/production/_ext/344840758/sys_fs.o
 .debug_line    0x0000000000012b24      0xfe0 build/pic32mzef_c2_ak4954/production/_ext/344840758/sys_fs_media_manager.o
 .debug_line    0x0000000000013b04      0x993 build/pic32mzef_c2_ak4954/production/_ext/344840758/sys_fs_fat_interface.o
 .debug_line    0x0000000000014497      0x1e0 build/pic32mzef_c2_ak4954/production/_ext/386225584/sys_int.o
 .debug_line    0x0000000000014677     0x11d1 build/pic32mzef_c2_ak4954/production/_ext/784026422/sys_time.o
 .debug_line    0x0000000000015848      0xadc build/pic32mzef_c2_ak4954/production/_ext/79412797/initialization.o
 .debug_line    0x0000000000016324      0x13a build/pic32mzef_c2_ak4954/production/_ext/79412797/interrupts.o
 .debug_line    0x000000000001645e      0x162 build/pic32mzef_c2_ak4954/production/_ext/79412797/exceptions.o
 .debug_line    0x00000000000165c0      0x293 build/pic32mzef_c2_ak4954/production/_ext/79412797/tasks.o
 .debug_line    0x0000000000016853     0x1445 build/pic32mzef_c2_ak4954/production/_ext/1360937237/app_sdcard_audio_task.o
 .debug_line    0x0000000000017c98      0x356 build/pic32mzef_c2_ak4954/production/_ext/1360937237/decoder.o
 .debug_line    0x0000000000017fee      0x23d build/pic32mzef_c2_ak4954/production/_ext/1360937237/main.o
 .debug_line    0x000000000001822b      0x448 build/pic32mzef_c2_ak4954/production/_ext/1360937237/app.o
 .debug_line    0x0000000000018673      0x2e0 c:/program files/microchip/xc32/v4.21/bin/bin/../../lib/gcc/pic32mx/8.3.1/fpu64\libgcc.a(_udivdi3.o)
 .debug_line    0x0000000000018953       0xa6 c:/program files/microchip/xc32/v4.21/bin/bin/../../lib/gcc/pic32mx/8.3.1/../../../../pic32mx/lib/fpu64\libpic32.a(default-on-reset.o)
 .debug_line    0x00000000000189f9       0xaa c:/program files/microchip/xc32/v4.21/bin/bin/../../lib/gcc/pic32mx/8.3.1/../../../../pic32mx/lib/fpu64\libpic32.a(default-on-bootstrap.o)
 .debug_line    0x0000000000018aa3       0xc9 c:/program files/microchip/xc32/v4.21/bin/bin/../../lib/gcc/pic32mx/8.3.1/../../../../pic32mx/lib/fpu64\libpic32.a(defaultinterrupt.o)
 .debug_line    0x0000000000018b6c      0x277 c:/program files/microchip/xc32/v4.21/bin/bin/../../lib/gcc/pic32mx/8.3.1/../../../../pic32mx/lib/fpu64\libc-musl.a(__sio_printf_dosux.o)
 .debug_line    0x0000000000018de3      0x25e c:/program files/microchip/xc32/v4.21/bin/bin/../../lib/gcc/pic32mx/8.3.1/../../../../pic32mx/lib/fpu64\libc-musl.a(__fmt_d.o)
 .debug_line    0x0000000000019041      0x20f c:/program files/microchip/xc32/v4.21/bin/bin/../../lib/gcc/pic32mx/8.3.1/../../../../pic32mx/lib/fpu64\libc-musl.a(__fmt_o.o)
 .debug_line    0x0000000000019250      0x25d c:/program files/microchip/xc32/v4.21/bin/bin/../../lib/gcc/pic32mx/8.3.1/../../../../pic32mx/lib/fpu64\libc-musl.a(__fmt_s.o)
 .debug_line    0x00000000000194ad      0x2a3 c:/program files/microchip/xc32/v4.21/bin/bin/../../lib/gcc/pic32mx/8.3.1/../../../../pic32mx/lib/fpu64\libc-musl.a(__fmt_u.o)
 .debug_line    0x0000000000019750      0x338 c:/program files/microchip/xc32/v4.21/bin/bin/../../lib/gcc/pic32mx/8.3.1/../../../../pic32mx/lib/fpu64\libc-musl.a(__fmt_x.o)
 .debug_line    0x0000000000019a88      0x25a c:/program files/microchip/xc32/v4.21/bin/bin/../../lib/gcc/pic32mx/8.3.1/../../../../pic32mx/lib/fpu64\libc-musl.a(__pop_int.o)
 .debug_line    0x0000000000019ce2      0x213 c:/program files/microchip/xc32/v4.21/bin/bin/../../lib/gcc/pic32mx/8.3.1/../../../../pic32mx/lib/fpu64\libc-musl.a(__pop_ptr.o)
 .debug_line    0x0000000000019ef5      0x71a c:/program files/microchip/xc32/v4.21/bin/bin/../../lib/gcc/pic32mx/8.3.1/../../../../pic32mx/lib/fpu64\libc-musl.a(__printf_core.o)
 .debug_line    0x000000000001a60f      0x25d c:/program files/microchip/xc32/v4.21/bin/bin/../../lib/gcc/pic32mx/8.3.1/../../../../pic32mx/lib/fpu64\libc-musl.a(stdout.o)
 .debug_line    0x000000000001a86c      0x17c c:/program files/microchip/xc32/v4.21/bin/bin/../../lib/gcc/pic32mx/8.3.1/../../../../pic32mx/lib/fpu64\libc-musl.a(atoi.o)
 .debug_line    0x000000000001a9e8      0x15a c:/program files/microchip/xc32/v4.21/bin/bin/../../lib/gcc/pic32mx/8.3.1/../../../../pic32mx/lib/fpu64\libc-musl.a(memmove.o)
 .debug_line    0x000000000001ab42      0x12c c:/program files/microchip/xc32/v4.21/bin/bin/../../lib/gcc/pic32mx/8.3.1/../../../../pic32mx/lib/fpu64\libc-musl.a(strcat.o)
 .debug_line    0x000000000001ac6e      0x140 c:/program files/microchip/xc32/v4.21/bin/bin/../../lib/gcc/pic32mx/8.3.1/../../../../pic32mx/lib/fpu64\libc-musl.a(strncmp.o)
 .debug_line    0x000000000001adae      0x1c1 c:/program files/microchip/xc32/v4.21/bin/bin/../../lib/gcc/pic32mx/8.3.1/../../../../pic32mx/lib/fpu64\libc-musl.a(tolower.o)
 .debug_line    0x000000000001af6f      0x1c1 c:/program files/microchip/xc32/v4.21/bin/bin/../../lib/gcc/pic32mx/8.3.1/../../../../pic32mx/lib/fpu64\libc-musl.a(toupper.o)
 .debug_line    0x000000000001b130      0x1c9 c:/program files/microchip/xc32/v4.21/bin/bin/../../lib/gcc/pic32mx/8.3.1/../../../../pic32mx/lib/fpu64\libc-musl.a(__int_vfprintf.o)
 .debug_line    0x000000000001b2f9      0x284 c:/program files/microchip/xc32/v4.21/bin/bin/../../lib/gcc/pic32mx/8.3.1/../../../../pic32mx/lib/fpu64\libc-musl.a(__fopen.o)
 .debug_line    0x000000000001b57d      0x155 c:/program files/microchip/xc32/v4.21/bin/bin/../../lib/gcc/pic32mx/8.3.1/../../../../pic32mx/lib/fpu64\libc-musl.a(__io_init_needed.o)
 .debug_line    0x000000000001b6d2      0x2ac c:/program files/microchip/xc32/v4.21/bin/bin/../../lib/gcc/pic32mx/8.3.1/../../../../pic32mx/lib/fpu64\libc-musl.a(__out.o)
 .debug_line    0x000000000001b97e      0x1bb c:/program files/microchip/xc32/v4.21/bin/bin/../../lib/gcc/pic32mx/8.3.1/../../../../pic32mx/lib/fpu64\libc-musl.a(__pop_float.o)
 .debug_line    0x000000000001bb39      0x2f8 c:/program files/microchip/xc32/v4.21/bin/bin/../../lib/gcc/pic32mx/8.3.1/../../../../pic32mx/lib/fpu64\libc-musl.a(__stdio_close.o)
 .debug_line    0x000000000001be31      0xb49 c:/program files/microchip/xc32/v4.21/bin/bin/../../lib/gcc/pic32mx/8.3.1/../../../../pic32mx/lib/fpu64\libc-musl.a(malloc.o)
 .debug_line    0x000000000001c97a      0x14b c:/program files/microchip/xc32/v4.21/bin/bin/../../lib/gcc/pic32mx/8.3.1/../../../../pic32mx/lib/fpu64\libc-musl.a(expand_heap.o)
 .debug_line    0x000000000001cac5       0xd0 c:/program files/microchip/xc32/v4.21/bin/bin/../../lib/gcc/pic32mx/8.3.1/../../../../pic32mx/lib/fpu64\libc-musl.a(__init_stdio.o)
 .debug_line    0x000000000001cb95       0xc4 c:/program files/microchip/xc32/v4.21/bin/bin/../../lib/gcc/pic32mx/8.3.1/../../../../pic32mx/lib/fpu64\libc-musl.a(__io_file_needed.o)
 .debug_line    0x000000000001cc59      0x112 c:/program files/microchip/xc32/v4.21/bin/bin/../../lib/gcc/pic32mx/8.3.1/../../../../pic32mx/lib/fpu64\libc-musl.a(libc.o)
 .debug_line    0x000000000001cd6b       0xe4 c:/program files/microchip/xc32/v4.21/bin/bin/../../lib/gcc/pic32mx/8.3.1/fpu64\libgcc.a(_lshrdi3.o)
 .debug_line    0x000000000001ce4f       0xe5 c:/program files/microchip/xc32/v4.21/bin/bin/../../lib/gcc/pic32mx/8.3.1/fpu64\libgcc.a(_ashldi3.o)
 .debug_line    0x000000000001cf34      0x317 c:/program files/microchip/xc32/v4.21/bin/bin/../../lib/gcc/pic32mx/8.3.1/fpu64\libgcc.a(_umoddi3.o)
 .debug_line    0x000000000001d24b      0x1b0 c:/program files/microchip/xc32/v4.21/bin/bin/../../lib/gcc/pic32mx/8.3.1/../../../../pic32mx/lib/fpu64\libpic32.a(sbrk.o)
 .debug_line    0x000000000001d3fb       0xb8 c:/program files/microchip/xc32/v4.21/bin/bin/../../lib/gcc/pic32mx/8.3.1/../../../../pic32mx/lib/fpu64\libpic32.a(write.o)
 .debug_line    0x000000000001d4b3       0x9b c:/program files/microchip/xc32/v4.21/bin/bin/../../lib/gcc/pic32mx/8.3.1/../../../../pic32mx/lib/fpu64\libpic32.a(lseek.o)
 .debug_line    0x000000000001d54e       0x9b c:/program files/microchip/xc32/v4.21/bin/bin/../../lib/gcc/pic32mx/8.3.1/../../../../pic32mx/lib/fpu64\libpic32.a(close.o)
 .debug_line    0x000000000001d5e9        0x0 c:/program files/microchip/xc32/v4.21/bin/bin/../../lib/gcc/pic32mx/8.3.1/../../../../pic32mx/lib/fpu64\libpic32.a(errno.o)

.debug_frame    0x0000000000000000     0x484c
 *.elf(.debug_frame)
 *(.debug_frame)
 .debug_frame   0x0000000000000000      0x16c build/pic32mzef_c2_ak4954/production/_ext/212299867/wav_dec.o
 .debug_frame   0x000000000000016c      0x404 build/pic32mzef_c2_ak4954/production/_ext/1856562345/drv_ak4954.o
 .debug_frame   0x0000000000000570      0x2c0 build/pic32mzef_c2_ak4954/production/_ext/450163651/drv_i2s.o
 .debug_frame   0x0000000000000830       0x90 build/pic32mzef_c2_ak4954/production/_ext/563155524/plib_i2s2.o
 .debug_frame   0x00000000000008c0       0x20 build/pic32mzef_c2_ak4954/production/_ext/1477346291/bsp.o
 .debug_frame   0x00000000000008e0      0x220 build/pic32mzef_c2_ak4954/production/_ext/1337057836/drv_i2c.o
 .debug_frame   0x0000000000000b00      0x1e0 build/pic32mzef_c2_ak4954/production/_ext/1500991179/drv_sdspi.o
 .debug_frame   0x0000000000000ce0      0x144 build/pic32mzef_c2_ak4954/production/_ext/1500991179/drv_sdspi_plib_interface.o
 .debug_frame   0x0000000000000e24       0x2c build/pic32mzef_c2_ak4954/production/_ext/1500991179/drv_sdspi_file_system.o
 .debug_frame   0x0000000000000e50      0x25c build/pic32mzef_c2_ak4954/production/_ext/617362437/plib_cache.o
 .debug_frame   0x00000000000010ac       0x20 build/pic32mzef_c2_ak4954/production/_ext/1435277349/plib_clk.o
 .debug_frame   0x00000000000010cc      0x110 build/pic32mzef_c2_ak4954/production/_ext/131824383/plib_coretimer.o
 .debug_frame   0x00000000000011dc      0x138 build/pic32mzef_c2_ak4954/production/_ext/1543894318/plib_dmac.o
 .debug_frame   0x0000000000001314       0xd4 build/pic32mzef_c2_ak4954/production/_ext/1543855630/plib_evic.o
 .debug_frame   0x00000000000013e8       0xa0 build/pic32mzef_c2_ak4954/production/_ext/1543801802/plib_gpio.o
 .debug_frame   0x0000000000001488       0xd8 build/pic32mzef_c2_ak4954/production/_ext/232538270/plib_i2c1_master.o
 .debug_frame   0x0000000000001560       0xe0 build/pic32mzef_c2_ak4954/production/_ext/603446335/plib_spi1_master.o
 .debug_frame   0x0000000000001640      0x104 build/pic32mzef_c2_ak4954/production/_ext/1543398859/plib_uart6.o
 .debug_frame   0x0000000000001744       0x30 build/pic32mzef_c2_ak4954/production/_ext/1888667843/xc32_monitor.o
 .debug_frame   0x0000000000001774      0x188 build/pic32mzef_c2_ak4954/production/_ext/839150702/sys_cache.o
 .debug_frame   0x00000000000018fc       0x4c build/pic32mzef_c2_ak4954/production/_ext/2050519836/sys_dma.o
 .debug_frame   0x0000000000001948      0x8cc build/pic32mzef_c2_ak4954/production/_ext/1867241316/ff.o
 .debug_frame   0x0000000000002214       0x40 build/pic32mzef_c2_ak4954/production/_ext/1867241316/ffunicode.o
 .debug_frame   0x0000000000002254      0x11c build/pic32mzef_c2_ak4954/production/_ext/1892335699/diskio.o
 .debug_frame   0x0000000000002370      0x58c build/pic32mzef_c2_ak4954/production/_ext/344840758/sys_fs.o
 .debug_frame   0x00000000000028fc      0x204 build/pic32mzef_c2_ak4954/production/_ext/344840758/sys_fs_media_manager.o
 .debug_frame   0x0000000000002b00      0x3d8 build/pic32mzef_c2_ak4954/production/_ext/344840758/sys_fs_fat_interface.o
 .debug_frame   0x0000000000002ed8       0xa0 build/pic32mzef_c2_ak4954/production/_ext/386225584/sys_int.o
 .debug_frame   0x0000000000002f78      0x3fc build/pic32mzef_c2_ak4954/production/_ext/784026422/sys_time.o
 .debug_frame   0x0000000000003374       0x30 build/pic32mzef_c2_ak4954/production/_ext/79412797/initialization.o
 .debug_frame   0x00000000000033a4      0x41c build/pic32mzef_c2_ak4954/production/_ext/79412797/interrupts.o
 .debug_frame   0x00000000000037c0       0x70 build/pic32mzef_c2_ak4954/production/_ext/79412797/exceptions.o
 .debug_frame   0x0000000000003830       0x2c build/pic32mzef_c2_ak4954/production/_ext/79412797/tasks.o
 .debug_frame   0x000000000000385c      0x560 build/pic32mzef_c2_ak4954/production/_ext/1360937237/app_sdcard_audio_task.o
 .debug_frame   0x0000000000003dbc       0x98 build/pic32mzef_c2_ak4954/production/_ext/1360937237/decoder.o
 .debug_frame   0x0000000000003e54       0x2c build/pic32mzef_c2_ak4954/production/_ext/1360937237/main.o
 .debug_frame   0x0000000000003e80       0x7c build/pic32mzef_c2_ak4954/production/_ext/1360937237/app.o
 .debug_frame   0x0000000000003efc       0x20 c:/program files/microchip/xc32/v4.21/bin/bin/../../lib/gcc/pic32mx/8.3.1/fpu64\libgcc.a(_udivdi3.o)
 .debug_frame   0x0000000000003f1c       0x20 c:/program files/microchip/xc32/v4.21/bin/bin/../../lib/gcc/pic32mx/8.3.1/../../../../pic32mx/lib/fpu64\libpic32.a(default-on-reset.o)
 .debug_frame   0x0000000000003f3c       0x20 c:/program files/microchip/xc32/v4.21/bin/bin/../../lib/gcc/pic32mx/8.3.1/../../../../pic32mx/lib/fpu64\libpic32.a(default-on-bootstrap.o)
 .debug_frame   0x0000000000003f5c       0x20 c:/program files/microchip/xc32/v4.21/bin/bin/../../lib/gcc/pic32mx/8.3.1/../../../../pic32mx/lib/fpu64\libpic32.a(defaultinterrupt.o)
 .debug_frame   0x0000000000003f7c       0x48 c:/program files/microchip/xc32/v4.21/bin/bin/../../lib/gcc/pic32mx/8.3.1/../../../../pic32mx/lib/fpu64\libc-musl.a(__sio_printf_dosux.o)
 .debug_frame   0x0000000000003fc4       0x38 c:/program files/microchip/xc32/v4.21/bin/bin/../../lib/gcc/pic32mx/8.3.1/../../../../pic32mx/lib/fpu64\libc-musl.a(__fmt_d.o)
 .debug_frame   0x0000000000003ffc       0x34 c:/program files/microchip/xc32/v4.21/bin/bin/../../lib/gcc/pic32mx/8.3.1/../../../../pic32mx/lib/fpu64\libc-musl.a(__fmt_o.o)
 .debug_frame   0x0000000000004030       0x34 c:/program files/microchip/xc32/v4.21/bin/bin/../../lib/gcc/pic32mx/8.3.1/../../../../pic32mx/lib/fpu64\libc-musl.a(__fmt_s.o)
 .debug_frame   0x0000000000004064       0x64 c:/program files/microchip/xc32/v4.21/bin/bin/../../lib/gcc/pic32mx/8.3.1/../../../../pic32mx/lib/fpu64\libc-musl.a(__fmt_u.o)
 .debug_frame   0x00000000000040c8       0x40 c:/program files/microchip/xc32/v4.21/bin/bin/../../lib/gcc/pic32mx/8.3.1/../../../../pic32mx/lib/fpu64\libc-musl.a(__fmt_x.o)
 .debug_frame   0x0000000000004108       0x20 c:/program files/microchip/xc32/v4.21/bin/bin/../../lib/gcc/pic32mx/8.3.1/../../../../pic32mx/lib/fpu64\libc-musl.a(__pop_int.o)
 .debug_frame   0x0000000000004128       0x20 c:/program files/microchip/xc32/v4.21/bin/bin/../../lib/gcc/pic32mx/8.3.1/../../../../pic32mx/lib/fpu64\libc-musl.a(__pop_ptr.o)
 .debug_frame   0x0000000000004148       0xcc c:/program files/microchip/xc32/v4.21/bin/bin/../../lib/gcc/pic32mx/8.3.1/../../../../pic32mx/lib/fpu64\libc-musl.a(__printf_core.o)
 .debug_frame   0x0000000000004214       0x3c c:/program files/microchip/xc32/v4.21/bin/bin/../../lib/gcc/pic32mx/8.3.1/../../../../pic32mx/lib/fpu64\libc-musl.a(stdout.o)
 .debug_frame   0x0000000000004250       0x20 c:/program files/microchip/xc32/v4.21/bin/bin/../../lib/gcc/pic32mx/8.3.1/../../../../pic32mx/lib/fpu64\libc-musl.a(atoi.o)
 .debug_frame   0x0000000000004270       0x20 c:/program files/microchip/xc32/v4.21/bin/bin/../../lib/gcc/pic32mx/8.3.1/../../../../pic32mx/lib/fpu64\libc-musl.a(memmove.o)
 .debug_frame   0x0000000000004290       0x2c c:/program files/microchip/xc32/v4.21/bin/bin/../../lib/gcc/pic32mx/8.3.1/../../../../pic32mx/lib/fpu64\libc-musl.a(strcat.o)
 .debug_frame   0x00000000000042bc       0x20 c:/program files/microchip/xc32/v4.21/bin/bin/../../lib/gcc/pic32mx/8.3.1/../../../../pic32mx/lib/fpu64\libc-musl.a(strncmp.o)
 .debug_frame   0x00000000000042dc       0x3c c:/program files/microchip/xc32/v4.21/bin/bin/../../lib/gcc/pic32mx/8.3.1/../../../../pic32mx/lib/fpu64\libc-musl.a(tolower.o)
 .debug_frame   0x0000000000004318       0x3c c:/program files/microchip/xc32/v4.21/bin/bin/../../lib/gcc/pic32mx/8.3.1/../../../../pic32mx/lib/fpu64\libc-musl.a(toupper.o)
 .debug_frame   0x0000000000004354       0x2c c:/program files/microchip/xc32/v4.21/bin/bin/../../lib/gcc/pic32mx/8.3.1/../../../../pic32mx/lib/fpu64\libc-musl.a(__int_vfprintf.o)
 .debug_frame   0x0000000000004380       0x58 c:/program files/microchip/xc32/v4.21/bin/bin/../../lib/gcc/pic32mx/8.3.1/../../../../pic32mx/lib/fpu64\libc-musl.a(__fopen.o)
 .debug_frame   0x00000000000043d8       0x48 c:/program files/microchip/xc32/v4.21/bin/bin/../../lib/gcc/pic32mx/8.3.1/../../../../pic32mx/lib/fpu64\libc-musl.a(__io_init_needed.o)
 .debug_frame   0x0000000000004420       0x50 c:/program files/microchip/xc32/v4.21/bin/bin/../../lib/gcc/pic32mx/8.3.1/../../../../pic32mx/lib/fpu64\libc-musl.a(__out.o)
 .debug_frame   0x0000000000004470       0x20 c:/program files/microchip/xc32/v4.21/bin/bin/../../lib/gcc/pic32mx/8.3.1/../../../../pic32mx/lib/fpu64\libc-musl.a(__pop_float.o)
 .debug_frame   0x0000000000004490       0x50 c:/program files/microchip/xc32/v4.21/bin/bin/../../lib/gcc/pic32mx/8.3.1/../../../../pic32mx/lib/fpu64\libc-musl.a(__stdio_close.o)
 .debug_frame   0x00000000000044e0      0x168 c:/program files/microchip/xc32/v4.21/bin/bin/../../lib/gcc/pic32mx/8.3.1/../../../../pic32mx/lib/fpu64\libc-musl.a(malloc.o)
 .debug_frame   0x0000000000004648       0x2c c:/program files/microchip/xc32/v4.21/bin/bin/../../lib/gcc/pic32mx/8.3.1/../../../../pic32mx/lib/fpu64\libc-musl.a(expand_heap.o)
 .debug_frame   0x0000000000004674       0x3c c:/program files/microchip/xc32/v4.21/bin/bin/../../lib/gcc/pic32mx/8.3.1/../../../../pic32mx/lib/fpu64\libc-musl.a(__init_stdio.o)
 .debug_frame   0x00000000000046b0       0x2c c:/program files/microchip/xc32/v4.21/bin/bin/../../lib/gcc/pic32mx/8.3.1/../../../../pic32mx/lib/fpu64\libc-musl.a(__io_file_needed.o)
 .debug_frame   0x00000000000046dc       0x20 c:/program files/microchip/xc32/v4.21/bin/bin/../../lib/gcc/pic32mx/8.3.1/fpu64\libgcc.a(_lshrdi3.o)
 .debug_frame   0x00000000000046fc       0x20 c:/program files/microchip/xc32/v4.21/bin/bin/../../lib/gcc/pic32mx/8.3.1/fpu64\libgcc.a(_ashldi3.o)
 .debug_frame   0x000000000000471c       0x20 c:/program files/microchip/xc32/v4.21/bin/bin/../../lib/gcc/pic32mx/8.3.1/fpu64\libgcc.a(_umoddi3.o)
 .debug_frame   0x000000000000473c       0x9c c:/program files/microchip/xc32/v4.21/bin/bin/../../lib/gcc/pic32mx/8.3.1/../../../../pic32mx/lib/fpu64\libpic32.a(sbrk.o)
 .debug_frame   0x00000000000047d8       0x34 c:/program files/microchip/xc32/v4.21/bin/bin/../../lib/gcc/pic32mx/8.3.1/../../../../pic32mx/lib/fpu64\libpic32.a(write.o)
 .debug_frame   0x000000000000480c       0x20 c:/program files/microchip/xc32/v4.21/bin/bin/../../lib/gcc/pic32mx/8.3.1/../../../../pic32mx/lib/fpu64\libpic32.a(lseek.o)
 .debug_frame   0x000000000000482c       0x20 c:/program files/microchip/xc32/v4.21/bin/bin/../../lib/gcc/pic32mx/8.3.1/../../../../pic32mx/lib/fpu64\libpic32.a(close.o)

.debug_str      0x0000000000000000    0x2d790
 *.elf(.debug_str)
 *(.debug_str)
 .debug_str     0x0000000000000000      0x6e8 build/pic32mzef_c2_ak4954/production/_ext/212299867/wav_dec.o
 .debug_str     0x00000000000006e8     0x2911 build/pic32mzef_c2_ak4954/production/_ext/1856562345/drv_ak4954.o
 .debug_str     0x0000000000002ff9     0x23ed build/pic32mzef_c2_ak4954/production/_ext/450163651/drv_i2s.o
 .debug_str     0x00000000000053e6      0x4f7 build/pic32mzef_c2_ak4954/production/_ext/563155524/plib_i2s2.o
 .debug_str     0x00000000000058dd      0x32c build/pic32mzef_c2_ak4954/production/_ext/1477346291/bsp.o
 .debug_str     0x0000000000005c09     0x2173 build/pic32mzef_c2_ak4954/production/_ext/1337057836/drv_i2c.o
 .debug_str     0x0000000000007d7c     0x37d5 build/pic32mzef_c2_ak4954/production/_ext/1500991179/drv_sdspi.o
 .debug_str     0x000000000000b551     0x2aba build/pic32mzef_c2_ak4954/production/_ext/1500991179/drv_sdspi_plib_interface.o
 .debug_str     0x000000000000e00b      0x8a4 build/pic32mzef_c2_ak4954/production/_ext/1500991179/drv_sdspi_file_system.o
 .debug_str     0x000000000000e8af      0x78f build/pic32mzef_c2_ak4954/production/_ext/617362437/plib_cache.o
 .debug_str     0x000000000000f03e       0x93 build/pic32mzef_c2_ak4954/production/_ext/617362437/plib_cache_pic32mz.o
 .debug_str     0x000000000000f0d1      0x3ff build/pic32mzef_c2_ak4954/production/_ext/1435277349/plib_clk.o
 .debug_str     0x000000000000f4d0      0x565 build/pic32mzef_c2_ak4954/production/_ext/131824383/plib_coretimer.o
 .debug_str     0x000000000000fa35      0x9c8 build/pic32mzef_c2_ak4954/production/_ext/1543894318/plib_dmac.o
 .debug_str     0x00000000000103fd     0x1657 build/pic32mzef_c2_ak4954/production/_ext/1543855630/plib_evic.o
 .debug_str     0x0000000000011a54      0x625 build/pic32mzef_c2_ak4954/production/_ext/1543801802/plib_gpio.o
 .debug_str     0x0000000000012079      0x731 build/pic32mzef_c2_ak4954/production/_ext/232538270/plib_i2c1_master.o
 .debug_str     0x00000000000127aa      0x6d0 build/pic32mzef_c2_ak4954/production/_ext/603446335/plib_spi1_master.o
 .debug_str     0x0000000000012e7a      0x65a build/pic32mzef_c2_ak4954/production/_ext/1543398859/plib_uart6.o
 .debug_str     0x00000000000134d4      0x299 build/pic32mzef_c2_ak4954/production/_ext/1888667843/xc32_monitor.o
 .debug_str     0x000000000001376d      0x584 build/pic32mzef_c2_ak4954/production/_ext/839150702/sys_cache.o
 .debug_str     0x0000000000013cf1      0x6e9 build/pic32mzef_c2_ak4954/production/_ext/2050519836/sys_dma.o
 .debug_str     0x00000000000143da      0xb56 build/pic32mzef_c2_ak4954/production/_ext/1867241316/ff.o
 .debug_str     0x0000000000014f30      0x370 build/pic32mzef_c2_ak4954/production/_ext/1867241316/ffunicode.o
 .debug_str     0x00000000000152a0      0x9c0 build/pic32mzef_c2_ak4954/production/_ext/1892335699/diskio.o
 .debug_str     0x0000000000015c60     0x13ab build/pic32mzef_c2_ak4954/production/_ext/344840758/sys_fs.o
 .debug_str     0x000000000001700b     0x151f build/pic32mzef_c2_ak4954/production/_ext/344840758/sys_fs_media_manager.o
 .debug_str     0x000000000001852a      0xa84 build/pic32mzef_c2_ak4954/production/_ext/344840758/sys_fs_fat_interface.o
 .debug_str     0x0000000000018fae     0x1602 build/pic32mzef_c2_ak4954/production/_ext/386225584/sys_int.o
 .debug_str     0x000000000001a5b0     0x1fc9 build/pic32mzef_c2_ak4954/production/_ext/784026422/sys_time.o
 .debug_str     0x000000000001c579     0x3773 build/pic32mzef_c2_ak4954/production/_ext/79412797/initialization.o
 .debug_str     0x000000000001fcec      0x434 build/pic32mzef_c2_ak4954/production/_ext/79412797/interrupts.o
 .debug_str     0x0000000000020120      0x5b8 build/pic32mzef_c2_ak4954/production/_ext/79412797/exceptions.o
 .debug_str     0x00000000000206d8      0x3af build/pic32mzef_c2_ak4954/production/_ext/79412797/tasks.o
 .debug_str     0x0000000000020a87     0x1ff0 build/pic32mzef_c2_ak4954/production/_ext/1360937237/app_sdcard_audio_task.o
 .debug_str     0x0000000000022a77      0xd5c build/pic32mzef_c2_ak4954/production/_ext/1360937237/decoder.o
 .debug_str     0x00000000000237d3      0x4b4 build/pic32mzef_c2_ak4954/production/_ext/1360937237/main.o
 .debug_str     0x0000000000023c87      0x7ba build/pic32mzef_c2_ak4954/production/_ext/1360937237/app.o
 .debug_str     0x0000000000024441      0x42d c:/program files/microchip/xc32/v4.21/bin/bin/../../lib/gcc/pic32mx/8.3.1/fpu64\libgcc.a(_udivdi3.o)
 .debug_str     0x000000000002486e      0x35a c:/program files/microchip/xc32/v4.21/bin/bin/../../lib/gcc/pic32mx/8.3.1/../../../../pic32mx/lib/fpu64\libpic32.a(default-on-reset.o)
 .debug_str     0x0000000000024bc8      0x362 c:/program files/microchip/xc32/v4.21/bin/bin/../../lib/gcc/pic32mx/8.3.1/../../../../pic32mx/lib/fpu64\libpic32.a(default-on-bootstrap.o)
 .debug_str     0x0000000000024f2a      0x374 c:/program files/microchip/xc32/v4.21/bin/bin/../../lib/gcc/pic32mx/8.3.1/../../../../pic32mx/lib/fpu64\libpic32.a(defaultinterrupt.o)
 .debug_str     0x000000000002529e      0x43e c:/program files/microchip/xc32/v4.21/bin/bin/../../lib/gcc/pic32mx/8.3.1/../../../../pic32mx/lib/fpu64\libc-musl.a(__sio_printf_dosux.o)
 .debug_str     0x00000000000256dc      0x3ee c:/program files/microchip/xc32/v4.21/bin/bin/../../lib/gcc/pic32mx/8.3.1/../../../../pic32mx/lib/fpu64\libc-musl.a(__fmt_d.o)
 .debug_str     0x0000000000025aca      0x3ee c:/program files/microchip/xc32/v4.21/bin/bin/../../lib/gcc/pic32mx/8.3.1/../../../../pic32mx/lib/fpu64\libc-musl.a(__fmt_o.o)
 .debug_str     0x0000000000025eb8      0x3da c:/program files/microchip/xc32/v4.21/bin/bin/../../lib/gcc/pic32mx/8.3.1/../../../../pic32mx/lib/fpu64\libc-musl.a(__fmt_s.o)
 .debug_str     0x0000000000026292      0x3f3 c:/program files/microchip/xc32/v4.21/bin/bin/../../lib/gcc/pic32mx/8.3.1/../../../../pic32mx/lib/fpu64\libc-musl.a(__fmt_u.o)
 .debug_str     0x0000000000026685      0x3ee c:/program files/microchip/xc32/v4.21/bin/bin/../../lib/gcc/pic32mx/8.3.1/../../../../pic32mx/lib/fpu64\libc-musl.a(__fmt_x.o)
 .debug_str     0x0000000000026a73      0x3c7 c:/program files/microchip/xc32/v4.21/bin/bin/../../lib/gcc/pic32mx/8.3.1/../../../../pic32mx/lib/fpu64\libc-musl.a(__pop_int.o)
 .debug_str     0x0000000000026e3a      0x3c9 c:/program files/microchip/xc32/v4.21/bin/bin/../../lib/gcc/pic32mx/8.3.1/../../../../pic32mx/lib/fpu64\libc-musl.a(__pop_ptr.o)
 .debug_str     0x0000000000027203      0x4d6 c:/program files/microchip/xc32/v4.21/bin/bin/../../lib/gcc/pic32mx/8.3.1/../../../../pic32mx/lib/fpu64\libc-musl.a(__printf_core.o)
 .debug_str     0x00000000000276d9      0x484 c:/program files/microchip/xc32/v4.21/bin/bin/../../lib/gcc/pic32mx/8.3.1/../../../../pic32mx/lib/fpu64\libc-musl.a(stdout.o)
 .debug_str     0x0000000000027b5d      0x327 c:/program files/microchip/xc32/v4.21/bin/bin/../../lib/gcc/pic32mx/8.3.1/../../../../pic32mx/lib/fpu64\libc-musl.a(atoi.o)
 .debug_str     0x0000000000027e84      0x333 c:/program files/microchip/xc32/v4.21/bin/bin/../../lib/gcc/pic32mx/8.3.1/../../../../pic32mx/lib/fpu64\libc-musl.a(memmove.o)
 .debug_str     0x00000000000281b7      0x31d c:/program files/microchip/xc32/v4.21/bin/bin/../../lib/gcc/pic32mx/8.3.1/../../../../pic32mx/lib/fpu64\libc-musl.a(strcat.o)
 .debug_str     0x00000000000284d4      0x321 c:/program files/microchip/xc32/v4.21/bin/bin/../../lib/gcc/pic32mx/8.3.1/../../../../pic32mx/lib/fpu64\libc-musl.a(strncmp.o)
 .debug_str     0x00000000000287f5      0x354 c:/program files/microchip/xc32/v4.21/bin/bin/../../lib/gcc/pic32mx/8.3.1/../../../../pic32mx/lib/fpu64\libc-musl.a(tolower.o)
 .debug_str     0x0000000000028b49      0x354 c:/program files/microchip/xc32/v4.21/bin/bin/../../lib/gcc/pic32mx/8.3.1/../../../../pic32mx/lib/fpu64\libc-musl.a(toupper.o)
 .debug_str     0x0000000000028e9d      0x3e5 c:/program files/microchip/xc32/v4.21/bin/bin/../../lib/gcc/pic32mx/8.3.1/../../../../pic32mx/lib/fpu64\libc-musl.a(__int_vfprintf.o)
 .debug_str     0x0000000000029282      0x3ff c:/program files/microchip/xc32/v4.21/bin/bin/../../lib/gcc/pic32mx/8.3.1/../../../../pic32mx/lib/fpu64\libc-musl.a(__fopen.o)
 .debug_str     0x0000000000029681      0x3cd c:/program files/microchip/xc32/v4.21/bin/bin/../../lib/gcc/pic32mx/8.3.1/../../../../pic32mx/lib/fpu64\libc-musl.a(__io_init_needed.o)
 .debug_str     0x0000000000029a4e      0x3d3 c:/program files/microchip/xc32/v4.21/bin/bin/../../lib/gcc/pic32mx/8.3.1/../../../../pic32mx/lib/fpu64\libc-musl.a(__out.o)
 .debug_str     0x0000000000029e21      0x3bc c:/program files/microchip/xc32/v4.21/bin/bin/../../lib/gcc/pic32mx/8.3.1/../../../../pic32mx/lib/fpu64\libc-musl.a(__pop_float.o)
 .debug_str     0x000000000002a1dd      0x456 c:/program files/microchip/xc32/v4.21/bin/bin/../../lib/gcc/pic32mx/8.3.1/../../../../pic32mx/lib/fpu64\libc-musl.a(__stdio_close.o)
 .debug_str     0x000000000002a633      0x59f c:/program files/microchip/xc32/v4.21/bin/bin/../../lib/gcc/pic32mx/8.3.1/../../../../pic32mx/lib/fpu64\libc-musl.a(malloc.o)
 .debug_str     0x000000000002abd2      0x39e c:/program files/microchip/xc32/v4.21/bin/bin/../../lib/gcc/pic32mx/8.3.1/../../../../pic32mx/lib/fpu64\libc-musl.a(expand_heap.o)
 .debug_str     0x000000000002af70      0x393 c:/program files/microchip/xc32/v4.21/bin/bin/../../lib/gcc/pic32mx/8.3.1/../../../../pic32mx/lib/fpu64\libc-musl.a(__init_stdio.o)
 .debug_str     0x000000000002b303      0x3a0 c:/program files/microchip/xc32/v4.21/bin/bin/../../lib/gcc/pic32mx/8.3.1/../../../../pic32mx/lib/fpu64\libc-musl.a(__io_file_needed.o)
 .debug_str     0x000000000002b6a3      0x440 c:/program files/microchip/xc32/v4.21/bin/bin/../../lib/gcc/pic32mx/8.3.1/../../../../pic32mx/lib/fpu64\libc-musl.a(libc.o)
 .debug_str     0x000000000002bae3      0x3f0 c:/program files/microchip/xc32/v4.21/bin/bin/../../lib/gcc/pic32mx/8.3.1/fpu64\libgcc.a(_lshrdi3.o)
 .debug_str     0x000000000002bed3      0x3f0 c:/program files/microchip/xc32/v4.21/bin/bin/../../lib/gcc/pic32mx/8.3.1/fpu64\libgcc.a(_ashldi3.o)
 .debug_str     0x000000000002c2c3      0x42d c:/program files/microchip/xc32/v4.21/bin/bin/../../lib/gcc/pic32mx/8.3.1/fpu64\libgcc.a(_umoddi3.o)
 .debug_str     0x000000000002c6f0      0x37a c:/program files/microchip/xc32/v4.21/bin/bin/../../lib/gcc/pic32mx/8.3.1/../../../../pic32mx/lib/fpu64\libpic32.a(sbrk.o)
 .debug_str     0x000000000002ca6a      0x34b c:/program files/microchip/xc32/v4.21/bin/bin/../../lib/gcc/pic32mx/8.3.1/../../../../pic32mx/lib/fpu64\libpic32.a(write.o)
 .debug_str     0x000000000002cdb5      0x34b c:/program files/microchip/xc32/v4.21/bin/bin/../../lib/gcc/pic32mx/8.3.1/../../../../pic32mx/lib/fpu64\libpic32.a(lseek.o)
 .debug_str     0x000000000002d100      0x34b c:/program files/microchip/xc32/v4.21/bin/bin/../../lib/gcc/pic32mx/8.3.1/../../../../pic32mx/lib/fpu64\libpic32.a(close.o)
 .debug_str     0x000000000002d44b      0x345 c:/program files/microchip/xc32/v4.21/bin/bin/../../lib/gcc/pic32mx/8.3.1/../../../../pic32mx/lib/fpu64\libpic32.a(errno.o)

.debug_loc      0x0000000000000000    0x21b26
 *.elf(.debug_loc)
 *(.debug_loc)
 .debug_loc     0x0000000000000000      0x388 build/pic32mzef_c2_ak4954/production/_ext/212299867/wav_dec.o
 .debug_loc     0x0000000000000388     0x3583 build/pic32mzef_c2_ak4954/production/_ext/1856562345/drv_ak4954.o
 .debug_loc     0x000000000000390b      0xfa0 build/pic32mzef_c2_ak4954/production/_ext/450163651/drv_i2s.o
 .debug_loc     0x00000000000048ab      0x575 build/pic32mzef_c2_ak4954/production/_ext/563155524/plib_i2s2.o
 .debug_loc     0x0000000000004e20     0x149f build/pic32mzef_c2_ak4954/production/_ext/1337057836/drv_i2c.o
 .debug_loc     0x00000000000062bf     0x337d build/pic32mzef_c2_ak4954/production/_ext/1500991179/drv_sdspi.o
 .debug_loc     0x000000000000963c      0x852 build/pic32mzef_c2_ak4954/production/_ext/1500991179/drv_sdspi_plib_interface.o
 .debug_loc     0x0000000000009e8e       0x25 build/pic32mzef_c2_ak4954/production/_ext/1500991179/drv_sdspi_file_system.o
 .debug_loc     0x0000000000009eb3      0x284 build/pic32mzef_c2_ak4954/production/_ext/617362437/plib_cache.o
 .debug_loc     0x000000000000a137       0xd1 build/pic32mzef_c2_ak4954/production/_ext/131824383/plib_coretimer.o
 .debug_loc     0x000000000000a208      0xba8 build/pic32mzef_c2_ak4954/production/_ext/1543894318/plib_dmac.o
 .debug_loc     0x000000000000adb0       0xc5 build/pic32mzef_c2_ak4954/production/_ext/1543855630/plib_evic.o
 .debug_loc     0x000000000000ae75      0x172 build/pic32mzef_c2_ak4954/production/_ext/1543801802/plib_gpio.o
 .debug_loc     0x000000000000afe7       0xb0 build/pic32mzef_c2_ak4954/production/_ext/232538270/plib_i2c1_master.o
 .debug_loc     0x000000000000b097      0x404 build/pic32mzef_c2_ak4954/production/_ext/603446335/plib_spi1_master.o
 .debug_loc     0x000000000000b49b      0x491 build/pic32mzef_c2_ak4954/production/_ext/1543398859/plib_uart6.o
 .debug_loc     0x000000000000b92c      0x12c build/pic32mzef_c2_ak4954/production/_ext/839150702/sys_cache.o
 .debug_loc     0x000000000000ba58      0x24a build/pic32mzef_c2_ak4954/production/_ext/2050519836/sys_dma.o
 .debug_loc     0x000000000000bca2     0x8404 build/pic32mzef_c2_ak4954/production/_ext/1867241316/ff.o
 .debug_loc     0x00000000000140a6      0x2e4 build/pic32mzef_c2_ak4954/production/_ext/1867241316/ffunicode.o
 .debug_loc     0x000000000001438a      0x814 build/pic32mzef_c2_ak4954/production/_ext/1892335699/diskio.o
 .debug_loc     0x0000000000014b9e     0x45ca build/pic32mzef_c2_ak4954/production/_ext/344840758/sys_fs.o
 .debug_loc     0x0000000000019168     0x1352 build/pic32mzef_c2_ak4954/production/_ext/344840758/sys_fs_media_manager.o
 .debug_loc     0x000000000001a4ba     0x166f build/pic32mzef_c2_ak4954/production/_ext/344840758/sys_fs_fat_interface.o
 .debug_loc     0x000000000001bb29      0x102 build/pic32mzef_c2_ak4954/production/_ext/386225584/sys_int.o
 .debug_loc     0x000000000001bc2b     0x18a7 build/pic32mzef_c2_ak4954/production/_ext/784026422/sys_time.o
 .debug_loc     0x000000000001d4d2       0x25 build/pic32mzef_c2_ak4954/production/_ext/79412797/initialization.o
 .debug_loc     0x000000000001d4f7      0xc1a build/pic32mzef_c2_ak4954/production/_ext/1360937237/app_sdcard_audio_task.o
 .debug_loc     0x000000000001e111      0x122 build/pic32mzef_c2_ak4954/production/_ext/1360937237/decoder.o
 .debug_loc     0x000000000001e233       0x16 build/pic32mzef_c2_ak4954/production/_ext/1360937237/app.o
 .debug_loc     0x000000000001e249      0x9f5 c:/program files/microchip/xc32/v4.21/bin/bin/../../lib/gcc/pic32mx/8.3.1/fpu64\libgcc.a(_udivdi3.o)
 .debug_loc     0x000000000001ec3e       0x47 c:/program files/microchip/xc32/v4.21/bin/bin/../../lib/gcc/pic32mx/8.3.1/../../../../pic32mx/lib/fpu64\libc-musl.a(__sio_printf_dosux.o)
 .debug_loc     0x000000000001ec85      0x241 c:/program files/microchip/xc32/v4.21/bin/bin/../../lib/gcc/pic32mx/8.3.1/../../../../pic32mx/lib/fpu64\libc-musl.a(__fmt_d.o)
 .debug_loc     0x000000000001eec6       0xf2 c:/program files/microchip/xc32/v4.21/bin/bin/../../lib/gcc/pic32mx/8.3.1/../../../../pic32mx/lib/fpu64\libc-musl.a(__fmt_o.o)
 .debug_loc     0x000000000001efb8      0x11f c:/program files/microchip/xc32/v4.21/bin/bin/../../lib/gcc/pic32mx/8.3.1/../../../../pic32mx/lib/fpu64\libc-musl.a(__fmt_s.o)
 .debug_loc     0x000000000001f0d7      0x2f0 c:/program files/microchip/xc32/v4.21/bin/bin/../../lib/gcc/pic32mx/8.3.1/../../../../pic32mx/lib/fpu64\libc-musl.a(__fmt_u.o)
 .debug_loc     0x000000000001f3c7      0x2b8 c:/program files/microchip/xc32/v4.21/bin/bin/../../lib/gcc/pic32mx/8.3.1/../../../../pic32mx/lib/fpu64\libc-musl.a(__fmt_x.o)
 .debug_loc     0x000000000001f67f       0x40 c:/program files/microchip/xc32/v4.21/bin/bin/../../lib/gcc/pic32mx/8.3.1/../../../../pic32mx/lib/fpu64\libc-musl.a(__pop_ptr.o)
 .debug_loc     0x000000000001f6bf      0x51f c:/program files/microchip/xc32/v4.21/bin/bin/../../lib/gcc/pic32mx/8.3.1/../../../../pic32mx/lib/fpu64\libc-musl.a(__printf_core.o)
 .debug_loc     0x000000000001fbde       0xbe c:/program files/microchip/xc32/v4.21/bin/bin/../../lib/gcc/pic32mx/8.3.1/../../../../pic32mx/lib/fpu64\libc-musl.a(atoi.o)
 .debug_loc     0x000000000001fc9c      0x23f c:/program files/microchip/xc32/v4.21/bin/bin/../../lib/gcc/pic32mx/8.3.1/../../../../pic32mx/lib/fpu64\libc-musl.a(memmove.o)
 .debug_loc     0x000000000001fedb       0x60 c:/program files/microchip/xc32/v4.21/bin/bin/../../lib/gcc/pic32mx/8.3.1/../../../../pic32mx/lib/fpu64\libc-musl.a(strcat.o)
 .debug_loc     0x000000000001ff3b       0xec c:/program files/microchip/xc32/v4.21/bin/bin/../../lib/gcc/pic32mx/8.3.1/../../../../pic32mx/lib/fpu64\libc-musl.a(strncmp.o)
 .debug_loc     0x0000000000020027       0x9f c:/program files/microchip/xc32/v4.21/bin/bin/../../lib/gcc/pic32mx/8.3.1/../../../../pic32mx/lib/fpu64\libc-musl.a(__int_vfprintf.o)
 .debug_loc     0x00000000000200c6       0x2f c:/program files/microchip/xc32/v4.21/bin/bin/../../lib/gcc/pic32mx/8.3.1/../../../../pic32mx/lib/fpu64\libc-musl.a(__fopen.o)
 .debug_loc     0x00000000000200f5      0x1ab c:/program files/microchip/xc32/v4.21/bin/bin/../../lib/gcc/pic32mx/8.3.1/../../../../pic32mx/lib/fpu64\libc-musl.a(__out.o)
 .debug_loc     0x00000000000202a0      0x130 c:/program files/microchip/xc32/v4.21/bin/bin/../../lib/gcc/pic32mx/8.3.1/../../../../pic32mx/lib/fpu64\libc-musl.a(__stdio_close.o)
 .debug_loc     0x00000000000203d0      0xbd3 c:/program files/microchip/xc32/v4.21/bin/bin/../../lib/gcc/pic32mx/8.3.1/../../../../pic32mx/lib/fpu64\libc-musl.a(malloc.o)
 .debug_loc     0x0000000000020fa3       0x4f c:/program files/microchip/xc32/v4.21/bin/bin/../../lib/gcc/pic32mx/8.3.1/../../../../pic32mx/lib/fpu64\libc-musl.a(expand_heap.o)
 .debug_loc     0x0000000000020ff2       0x99 c:/program files/microchip/xc32/v4.21/bin/bin/../../lib/gcc/pic32mx/8.3.1/fpu64\libgcc.a(_lshrdi3.o)
 .debug_loc     0x000000000002108b       0x75 c:/program files/microchip/xc32/v4.21/bin/bin/../../lib/gcc/pic32mx/8.3.1/fpu64\libgcc.a(_ashldi3.o)
 .debug_loc     0x0000000000021100      0x99a c:/program files/microchip/xc32/v4.21/bin/bin/../../lib/gcc/pic32mx/8.3.1/fpu64\libgcc.a(_umoddi3.o)
 .debug_loc     0x0000000000021a9a       0x6c c:/program files/microchip/xc32/v4.21/bin/bin/../../lib/gcc/pic32mx/8.3.1/../../../../pic32mx/lib/fpu64\libpic32.a(sbrk.o)
 .debug_loc     0x0000000000021b06       0x20 c:/program files/microchip/xc32/v4.21/bin/bin/../../lib/gcc/pic32mx/8.3.1/../../../../pic32mx/lib/fpu64\libpic32.a(write.o)

.debug_macinfo
 *.elf(.debug_macinfo)
 *(.debug_macinfo)

.debug_weaknames
 *.elf(.debug_weaknames)
 *(.debug_weaknames)

.debug_funcnames
 *.elf(.debug_funcnames)
 *(.debug_funcnames)

.debug_typenames
 *.elf(.debug_typenames)
 *(.debug_typenames)

.debug_varnames
 *.elf(.debug_varnames)
 *(.debug_varnames)

.debug_pubtypes
 *.elf(.debug_pubtypes)
 *(.debug_pubtypes)

.debug_ranges   0x0000000000000000     0x2aa8
 *.elf(.debug_ranges)
 *(.debug_ranges)
 .debug_ranges  0x0000000000000000       0x98 build/pic32mzef_c2_ak4954/production/_ext/212299867/wav_dec.o
 .debug_ranges  0x0000000000000098      0x258 build/pic32mzef_c2_ak4954/production/_ext/1856562345/drv_ak4954.o
 .debug_ranges  0x00000000000002f0       0xd0 build/pic32mzef_c2_ak4954/production/_ext/450163651/drv_i2s.o
 .debug_ranges  0x00000000000003c0       0x30 build/pic32mzef_c2_ak4954/production/_ext/563155524/plib_i2s2.o
 .debug_ranges  0x00000000000003f0       0x10 build/pic32mzef_c2_ak4954/production/_ext/1477346291/bsp.o
 .debug_ranges  0x0000000000000400      0x110 build/pic32mzef_c2_ak4954/production/_ext/1337057836/drv_i2c.o
 .debug_ranges  0x0000000000000510      0x770 build/pic32mzef_c2_ak4954/production/_ext/1500991179/drv_sdspi.o
 .debug_ranges  0x0000000000000c80       0xf0 build/pic32mzef_c2_ak4954/production/_ext/1500991179/drv_sdspi_plib_interface.o
 .debug_ranges  0x0000000000000d70       0x10 build/pic32mzef_c2_ak4954/production/_ext/1500991179/drv_sdspi_file_system.o
 .debug_ranges  0x0000000000000d80       0xb0 build/pic32mzef_c2_ak4954/production/_ext/617362437/plib_cache.o
 .debug_ranges  0x0000000000000e30       0x10 build/pic32mzef_c2_ak4954/production/_ext/1435277349/plib_clk.o
 .debug_ranges  0x0000000000000e40       0x58 build/pic32mzef_c2_ak4954/production/_ext/131824383/plib_coretimer.o
 .debug_ranges  0x0000000000000e98       0x80 build/pic32mzef_c2_ak4954/production/_ext/1543894318/plib_dmac.o
 .debug_ranges  0x0000000000000f18       0x58 build/pic32mzef_c2_ak4954/production/_ext/1543855630/plib_evic.o
 .debug_ranges  0x0000000000000f70       0x50 build/pic32mzef_c2_ak4954/production/_ext/1543801802/plib_gpio.o
 .debug_ranges  0x0000000000000fc0      0x120 build/pic32mzef_c2_ak4954/production/_ext/232538270/plib_i2c1_master.o
 .debug_ranges  0x00000000000010e0       0x58 build/pic32mzef_c2_ak4954/production/_ext/603446335/plib_spi1_master.o
 .debug_ranges  0x0000000000001138       0x70 build/pic32mzef_c2_ak4954/production/_ext/1543398859/plib_uart6.o
 .debug_ranges  0x00000000000011a8       0x18 build/pic32mzef_c2_ak4954/production/_ext/1888667843/xc32_monitor.o
 .debug_ranges  0x00000000000011c0       0x70 build/pic32mzef_c2_ak4954/production/_ext/839150702/sys_cache.o
 .debug_ranges  0x0000000000001230       0x20 build/pic32mzef_c2_ak4954/production/_ext/2050519836/sys_dma.o
 .debug_ranges  0x0000000000001250      0x4c8 build/pic32mzef_c2_ak4954/production/_ext/1867241316/ff.o
 .debug_ranges  0x0000000000001718       0x20 build/pic32mzef_c2_ak4954/production/_ext/1867241316/ffunicode.o
 .debug_ranges  0x0000000000001738       0x50 build/pic32mzef_c2_ak4954/production/_ext/1892335699/diskio.o
 .debug_ranges  0x0000000000001788      0x4f8 build/pic32mzef_c2_ak4954/production/_ext/344840758/sys_fs.o
 .debug_ranges  0x0000000000001c80      0x150 build/pic32mzef_c2_ak4954/production/_ext/344840758/sys_fs_media_manager.o
 .debug_ranges  0x0000000000001dd0      0x120 build/pic32mzef_c2_ak4954/production/_ext/344840758/sys_fs_fat_interface.o
 .debug_ranges  0x0000000000001ef0       0x30 build/pic32mzef_c2_ak4954/production/_ext/386225584/sys_int.o
 .debug_ranges  0x0000000000001f20      0x188 build/pic32mzef_c2_ak4954/production/_ext/784026422/sys_time.o
 .debug_ranges  0x00000000000020a8       0x10 build/pic32mzef_c2_ak4954/production/_ext/79412797/initialization.o
 .debug_ranges  0x00000000000020b8       0x40 build/pic32mzef_c2_ak4954/production/_ext/79412797/interrupts.o
 .debug_ranges  0x00000000000020f8       0x28 build/pic32mzef_c2_ak4954/production/_ext/79412797/exceptions.o
 .debug_ranges  0x0000000000002120       0x10 build/pic32mzef_c2_ak4954/production/_ext/79412797/tasks.o
 .debug_ranges  0x0000000000002130      0x1c8 build/pic32mzef_c2_ak4954/production/_ext/1360937237/app_sdcard_audio_task.o
 .debug_ranges  0x00000000000022f8       0x38 build/pic32mzef_c2_ak4954/production/_ext/1360937237/decoder.o
 .debug_ranges  0x0000000000002330       0x10 build/pic32mzef_c2_ak4954/production/_ext/1360937237/main.o
 .debug_ranges  0x0000000000002340       0x58 build/pic32mzef_c2_ak4954/production/_ext/1360937237/app.o
 .debug_ranges  0x0000000000002398       0xd8 c:/program files/microchip/xc32/v4.21/bin/bin/../../lib/gcc/pic32mx/8.3.1/fpu64\libgcc.a(_udivdi3.o)
 .debug_ranges  0x0000000000002470       0x10 c:/program files/microchip/xc32/v4.21/bin/bin/../../lib/gcc/pic32mx/8.3.1/../../../../pic32mx/lib/fpu64\libpic32.a(default-on-reset.o)
 .debug_ranges  0x0000000000002480       0x10 c:/program files/microchip/xc32/v4.21/bin/bin/../../lib/gcc/pic32mx/8.3.1/../../../../pic32mx/lib/fpu64\libpic32.a(default-on-bootstrap.o)
 .debug_ranges  0x0000000000002490       0x10 c:/program files/microchip/xc32/v4.21/bin/bin/../../lib/gcc/pic32mx/8.3.1/../../../../pic32mx/lib/fpu64\libpic32.a(defaultinterrupt.o)
 .debug_ranges  0x00000000000024a0       0x18 c:/program files/microchip/xc32/v4.21/bin/bin/../../lib/gcc/pic32mx/8.3.1/../../../../pic32mx/lib/fpu64\libc-musl.a(__sio_printf_dosux.o)
 .debug_ranges  0x00000000000024b8       0x10 c:/program files/microchip/xc32/v4.21/bin/bin/../../lib/gcc/pic32mx/8.3.1/../../../../pic32mx/lib/fpu64\libc-musl.a(__fmt_d.o)
 .debug_ranges  0x00000000000024c8       0x10 c:/program files/microchip/xc32/v4.21/bin/bin/../../lib/gcc/pic32mx/8.3.1/../../../../pic32mx/lib/fpu64\libc-musl.a(__fmt_o.o)
 .debug_ranges  0x00000000000024d8       0x10 c:/program files/microchip/xc32/v4.21/bin/bin/../../lib/gcc/pic32mx/8.3.1/../../../../pic32mx/lib/fpu64\libc-musl.a(__fmt_s.o)
 .debug_ranges  0x00000000000024e8       0x18 c:/program files/microchip/xc32/v4.21/bin/bin/../../lib/gcc/pic32mx/8.3.1/../../../../pic32mx/lib/fpu64\libc-musl.a(__fmt_u.o)
 .debug_ranges  0x0000000000002500       0x10 c:/program files/microchip/xc32/v4.21/bin/bin/../../lib/gcc/pic32mx/8.3.1/../../../../pic32mx/lib/fpu64\libc-musl.a(__fmt_x.o)
 .debug_ranges  0x0000000000002510       0x10 c:/program files/microchip/xc32/v4.21/bin/bin/../../lib/gcc/pic32mx/8.3.1/../../../../pic32mx/lib/fpu64\libc-musl.a(__pop_int.o)
 .debug_ranges  0x0000000000002520       0x10 c:/program files/microchip/xc32/v4.21/bin/bin/../../lib/gcc/pic32mx/8.3.1/../../../../pic32mx/lib/fpu64\libc-musl.a(__pop_ptr.o)
 .debug_ranges  0x0000000000002530       0xf8 c:/program files/microchip/xc32/v4.21/bin/bin/../../lib/gcc/pic32mx/8.3.1/../../../../pic32mx/lib/fpu64\libc-musl.a(__printf_core.o)
 .debug_ranges  0x0000000000002628       0x18 c:/program files/microchip/xc32/v4.21/bin/bin/../../lib/gcc/pic32mx/8.3.1/../../../../pic32mx/lib/fpu64\libc-musl.a(stdout.o)
 .debug_ranges  0x0000000000002640       0x28 c:/program files/microchip/xc32/v4.21/bin/bin/../../lib/gcc/pic32mx/8.3.1/../../../../pic32mx/lib/fpu64\libc-musl.a(atoi.o)
 .debug_ranges  0x0000000000002668       0x10 c:/program files/microchip/xc32/v4.21/bin/bin/../../lib/gcc/pic32mx/8.3.1/../../../../pic32mx/lib/fpu64\libc-musl.a(memmove.o)
 .debug_ranges  0x0000000000002678       0x10 c:/program files/microchip/xc32/v4.21/bin/bin/../../lib/gcc/pic32mx/8.3.1/../../../../pic32mx/lib/fpu64\libc-musl.a(strcat.o)
 .debug_ranges  0x0000000000002688       0x10 c:/program files/microchip/xc32/v4.21/bin/bin/../../lib/gcc/pic32mx/8.3.1/../../../../pic32mx/lib/fpu64\libc-musl.a(strncmp.o)
 .debug_ranges  0x0000000000002698       0x18 c:/program files/microchip/xc32/v4.21/bin/bin/../../lib/gcc/pic32mx/8.3.1/../../../../pic32mx/lib/fpu64\libc-musl.a(tolower.o)
 .debug_ranges  0x00000000000026b0       0x18 c:/program files/microchip/xc32/v4.21/bin/bin/../../lib/gcc/pic32mx/8.3.1/../../../../pic32mx/lib/fpu64\libc-musl.a(toupper.o)
 .debug_ranges  0x00000000000026c8       0x10 c:/program files/microchip/xc32/v4.21/bin/bin/../../lib/gcc/pic32mx/8.3.1/../../../../pic32mx/lib/fpu64\libc-musl.a(__int_vfprintf.o)
 .debug_ranges  0x00000000000026d8       0x20 c:/program files/microchip/xc32/v4.21/bin/bin/../../lib/gcc/pic32mx/8.3.1/../../../../pic32mx/lib/fpu64\libc-musl.a(__fopen.o)
 .debug_ranges  0x00000000000026f8       0x18 c:/program files/microchip/xc32/v4.21/bin/bin/../../lib/gcc/pic32mx/8.3.1/../../../../pic32mx/lib/fpu64\libc-musl.a(__io_init_needed.o)
 .debug_ranges  0x0000000000002710       0x30 c:/program files/microchip/xc32/v4.21/bin/bin/../../lib/gcc/pic32mx/8.3.1/../../../../pic32mx/lib/fpu64\libc-musl.a(__out.o)
 .debug_ranges  0x0000000000002740       0x10 c:/program files/microchip/xc32/v4.21/bin/bin/../../lib/gcc/pic32mx/8.3.1/../../../../pic32mx/lib/fpu64\libc-musl.a(__pop_float.o)
 .debug_ranges  0x0000000000002750       0x18 c:/program files/microchip/xc32/v4.21/bin/bin/../../lib/gcc/pic32mx/8.3.1/../../../../pic32mx/lib/fpu64\libc-musl.a(__stdio_close.o)
 .debug_ranges  0x0000000000002768      0x1e8 c:/program files/microchip/xc32/v4.21/bin/bin/../../lib/gcc/pic32mx/8.3.1/../../../../pic32mx/lib/fpu64\libc-musl.a(malloc.o)
 .debug_ranges  0x0000000000002950       0x10 c:/program files/microchip/xc32/v4.21/bin/bin/../../lib/gcc/pic32mx/8.3.1/../../../../pic32mx/lib/fpu64\libc-musl.a(expand_heap.o)
 .debug_ranges  0x0000000000002960       0x18 c:/program files/microchip/xc32/v4.21/bin/bin/../../lib/gcc/pic32mx/8.3.1/../../../../pic32mx/lib/fpu64\libc-musl.a(__init_stdio.o)
 .debug_ranges  0x0000000000002978       0x10 c:/program files/microchip/xc32/v4.21/bin/bin/../../lib/gcc/pic32mx/8.3.1/../../../../pic32mx/lib/fpu64\libc-musl.a(__io_file_needed.o)
 .debug_ranges  0x0000000000002988       0xc0 c:/program files/microchip/xc32/v4.21/bin/bin/../../lib/gcc/pic32mx/8.3.1/fpu64\libgcc.a(_umoddi3.o)
 .debug_ranges  0x0000000000002a48       0x30 c:/program files/microchip/xc32/v4.21/bin/bin/../../lib/gcc/pic32mx/8.3.1/../../../../pic32mx/lib/fpu64\libpic32.a(sbrk.o)
 .debug_ranges  0x0000000000002a78       0x10 c:/program files/microchip/xc32/v4.21/bin/bin/../../lib/gcc/pic32mx/8.3.1/../../../../pic32mx/lib/fpu64\libpic32.a(write.o)
 .debug_ranges  0x0000000000002a88       0x10 c:/program files/microchip/xc32/v4.21/bin/bin/../../lib/gcc/pic32mx/8.3.1/../../../../pic32mx/lib/fpu64\libpic32.a(lseek.o)
 .debug_ranges  0x0000000000002a98       0x10 c:/program files/microchip/xc32/v4.21/bin/bin/../../lib/gcc/pic32mx/8.3.1/../../../../pic32mx/lib/fpu64\libpic32.a(close.o)

.gnu.attributes
                0x0000000000000000       0x10
 *(.gnu.attributes)
 .gnu.attributes
                0x0000000000000000       0x10 c:/program files/microchip/xc32/v4.21/bin/bin/../../lib/gcc/pic32mx/8.3.1/../../../../pic32mx/lib/fpu64\debug-exception-return.o
 .gnu.attributes
                0x0000000000000010       0x10 build/pic32mzef_c2_ak4954/production/_ext/212299867/wav_dec.o
 .gnu.attributes
                0x0000000000000020       0x10 build/pic32mzef_c2_ak4954/production/_ext/1856562345/drv_ak4954.o
 .gnu.attributes
                0x0000000000000030       0x10 build/pic32mzef_c2_ak4954/production/_ext/450163651/drv_i2s.o
 .gnu.attributes
                0x0000000000000040       0x10 build/pic32mzef_c2_ak4954/production/_ext/563155524/plib_i2s2.o
 .gnu.attributes
                0x0000000000000050       0x10 build/pic32mzef_c2_ak4954/production/_ext/1477346291/bsp.o
 .gnu.attributes
                0x0000000000000060       0x10 build/pic32mzef_c2_ak4954/production/_ext/1337057836/drv_i2c.o
 .gnu.attributes
                0x0000000000000070       0x10 build/pic32mzef_c2_ak4954/production/_ext/1500991179/drv_sdspi.o
 .gnu.attributes
                0x0000000000000080       0x10 build/pic32mzef_c2_ak4954/production/_ext/1500991179/drv_sdspi_plib_interface.o
 .gnu.attributes
                0x0000000000000090       0x10 build/pic32mzef_c2_ak4954/production/_ext/1500991179/drv_sdspi_file_system.o
 .gnu.attributes
                0x00000000000000a0       0x10 build/pic32mzef_c2_ak4954/production/_ext/617362437/plib_cache.o
 .gnu.attributes
                0x00000000000000b0       0x10 build/pic32mzef_c2_ak4954/production/_ext/617362437/plib_cache_pic32mz.o
 .gnu.attributes
                0x00000000000000c0       0x10 build/pic32mzef_c2_ak4954/production/_ext/1435277349/plib_clk.o
 .gnu.attributes
                0x00000000000000d0       0x10 build/pic32mzef_c2_ak4954/production/_ext/131824383/plib_coretimer.o
 .gnu.attributes
                0x00000000000000e0       0x10 build/pic32mzef_c2_ak4954/production/_ext/1543894318/plib_dmac.o
 .gnu.attributes
                0x00000000000000f0       0x10 build/pic32mzef_c2_ak4954/production/_ext/1543855630/plib_evic.o
 .gnu.attributes
                0x0000000000000100       0x10 build/pic32mzef_c2_ak4954/production/_ext/1543801802/plib_gpio.o
 .gnu.attributes
                0x0000000000000110       0x10 build/pic32mzef_c2_ak4954/production/_ext/232538270/plib_i2c1_master.o
 .gnu.attributes
                0x0000000000000120       0x10 build/pic32mzef_c2_ak4954/production/_ext/603446335/plib_spi1_master.o
 .gnu.attributes
                0x0000000000000130       0x10 build/pic32mzef_c2_ak4954/production/_ext/1543398859/plib_uart6.o
 .gnu.attributes
                0x0000000000000140       0x10 build/pic32mzef_c2_ak4954/production/_ext/1888667843/xc32_monitor.o
 .gnu.attributes
                0x0000000000000150       0x10 build/pic32mzef_c2_ak4954/production/_ext/839150702/sys_cache.o
 .gnu.attributes
                0x0000000000000160       0x10 build/pic32mzef_c2_ak4954/production/_ext/2050519836/sys_dma.o
 .gnu.attributes
                0x0000000000000170       0x10 build/pic32mzef_c2_ak4954/production/_ext/1867241316/ff.o
 .gnu.attributes
                0x0000000000000180       0x10 build/pic32mzef_c2_ak4954/production/_ext/1867241316/ffunicode.o
 .gnu.attributes
                0x0000000000000190       0x10 build/pic32mzef_c2_ak4954/production/_ext/1892335699/diskio.o
 .gnu.attributes
                0x00000000000001a0       0x10 build/pic32mzef_c2_ak4954/production/_ext/344840758/sys_fs.o
 .gnu.attributes
                0x00000000000001b0       0x10 build/pic32mzef_c2_ak4954/production/_ext/344840758/sys_fs_media_manager.o
 .gnu.attributes
                0x00000000000001c0       0x10 build/pic32mzef_c2_ak4954/production/_ext/344840758/sys_fs_fat_interface.o
 .gnu.attributes
                0x00000000000001d0       0x10 build/pic32mzef_c2_ak4954/production/_ext/386225584/sys_int.o
 .gnu.attributes
                0x00000000000001e0       0x10 build/pic32mzef_c2_ak4954/production/_ext/784026422/sys_time.o
 .gnu.attributes
                0x00000000000001f0       0x10 build/pic32mzef_c2_ak4954/production/_ext/79412797/initialization.o
 .gnu.attributes
                0x0000000000000200       0x10 build/pic32mzef_c2_ak4954/production/_ext/79412797/interrupts.o
 .gnu.attributes
                0x0000000000000210       0x10 build/pic32mzef_c2_ak4954/production/_ext/79412797/exceptions.o
 .gnu.attributes
                0x0000000000000220       0x10 build/pic32mzef_c2_ak4954/production/_ext/79412797/tasks.o
 .gnu.attributes
                0x0000000000000230       0x10 build/pic32mzef_c2_ak4954/production/_ext/1360937237/app_sdcard_audio_task.o
 .gnu.attributes
                0x0000000000000240       0x10 build/pic32mzef_c2_ak4954/production/_ext/1360937237/decoder.o
 .gnu.attributes
                0x0000000000000250       0x10 build/pic32mzef_c2_ak4954/production/_ext/1360937237/main.o
 .gnu.attributes
                0x0000000000000260       0x10 build/pic32mzef_c2_ak4954/production/_ext/1360937237/app.o
 .gnu.attributes
                0x0000000000000270       0x10 C:\Users\spreg\AppData\Local\Temp\ccUeMUPf.o
 .gnu.attributes
                0x0000000000000280       0x10 C:\Users\spreg\AppData\Local\Temp\ccWZxsOs.o
 .gnu.attributes
                0x0000000000000290       0x10 C:\Users\spreg\AppData\Local\Temp\ccerR0EP.o
 .gnu.attributes
                0x00000000000002a0       0x10 C:\Users\spreg\AppData\Local\Temp\ccAcOKZk.o
 .gnu.attributes
                0x00000000000002b0       0x10 c:/program files/microchip/xc32/v4.21/bin/bin/../../lib/gcc/pic32mx/8.3.1/../../../../pic32mx/lib/fpu64\pic32_software_reset.o
 .gnu.attributes
                0x00000000000002c0       0x10 c:/program files/microchip/xc32/v4.21/bin/bin/../../lib/gcc/pic32mx/8.3.1/fpu64\libgcc.a(_udivdi3.o)
 .gnu.attributes
                0x00000000000002d0       0x10 c:/program files/microchip/xc32/v4.21/bin/bin/../../lib/gcc/pic32mx/8.3.1/../../../../pic32mx/lib/fpu64\libpic32.a(memcmp.o)
 .gnu.attributes
                0x00000000000002e0       0x10 c:/program files/microchip/xc32/v4.21/bin/bin/../../lib/gcc/pic32mx/8.3.1/../../../../pic32mx/lib/fpu64\libpic32.a(memcpy.o)
 .gnu.attributes
                0x00000000000002f0       0x10 c:/program files/microchip/xc32/v4.21/bin/bin/../../lib/gcc/pic32mx/8.3.1/../../../../pic32mx/lib/fpu64\libpic32.a(memset.o)
 .gnu.attributes
                0x0000000000000300       0x10 c:/program files/microchip/xc32/v4.21/bin/bin/../../lib/gcc/pic32mx/8.3.1/../../../../pic32mx/lib/fpu64\libpic32.a(strcmp.o)
 .gnu.attributes
                0x0000000000000310       0x10 c:/program files/microchip/xc32/v4.21/bin/bin/../../lib/gcc/pic32mx/8.3.1/../../../../pic32mx/lib/fpu64\libpic32.a(strcpy.o)
 .gnu.attributes
                0x0000000000000320       0x10 c:/program files/microchip/xc32/v4.21/bin/bin/../../lib/gcc/pic32mx/8.3.1/../../../../pic32mx/lib/fpu64\libpic32.a(strlen.o)
 .gnu.attributes
                0x0000000000000330       0x10 c:/program files/microchip/xc32/v4.21/bin/bin/../../lib/gcc/pic32mx/8.3.1/../../../../pic32mx/lib/fpu64\libpic32.a(default-on-reset.o)
 .gnu.attributes
                0x0000000000000340       0x10 c:/program files/microchip/xc32/v4.21/bin/bin/../../lib/gcc/pic32mx/8.3.1/../../../../pic32mx/lib/fpu64\libpic32.a(default-on-bootstrap.o)
 .gnu.attributes
                0x0000000000000350       0x10 c:/program files/microchip/xc32/v4.21/bin/bin/../../lib/gcc/pic32mx/8.3.1/../../../../pic32mx/lib/fpu64\libpic32.a(default-nmi-handler.o)
 .gnu.attributes
                0x0000000000000360       0x10 c:/program files/microchip/xc32/v4.21/bin/bin/../../lib/gcc/pic32mx/8.3.1/../../../../pic32mx/lib/fpu64\libpic32.a(pic32_data_init_wrapper.o)
 .gnu.attributes
                0x0000000000000370       0x10 c:/program files/microchip/xc32/v4.21/bin/bin/../../lib/gcc/pic32mx/8.3.1/../../../../pic32mx/lib/fpu64\libpic32.a(pic32_data_init_0_1.o)
 .gnu.attributes
                0x0000000000000380       0x10 c:/program files/microchip/xc32/v4.21/bin/bin/../../lib/gcc/pic32mx/8.3.1/../../../../pic32mx/lib/fpu64\libpic32.a(pic32_init_cache.o)
 .gnu.attributes
                0x0000000000000390       0x10 c:/program files/microchip/xc32/v4.21/bin/bin/../../lib/gcc/pic32mx/8.3.1/../../../../pic32mx/lib/fpu64\libpic32.a(pic32_init_tlb_ebi_sqi.o)
 .gnu.attributes
                0x00000000000003a0       0x10 c:/program files/microchip/xc32/v4.21/bin/bin/../../lib/gcc/pic32mx/8.3.1/../../../../pic32mx/lib/fpu64\libpic32.a(general-exception.o)
 .gnu.attributes
                0x00000000000003b0       0x10 c:/program files/microchip/xc32/v4.21/bin/bin/../../lib/gcc/pic32mx/8.3.1/../../../../pic32mx/lib/fpu64\libpic32.a(cache-err-exception.o)
 .gnu.attributes
                0x00000000000003c0       0x10 c:/program files/microchip/xc32/v4.21/bin/bin/../../lib/gcc/pic32mx/8.3.1/../../../../pic32mx/lib/fpu64\libpic32.a(simple-tlb-refill-exception.o)
 .gnu.attributes
                0x00000000000003d0       0x10 c:/program files/microchip/xc32/v4.21/bin/bin/../../lib/gcc/pic32mx/8.3.1/../../../../pic32mx/lib/fpu64\libpic32.a(defaultinterrupt.o)
 .gnu.attributes
                0x00000000000003e0       0x10 c:/program files/microchip/xc32/v4.21/bin/bin/../../lib/gcc/pic32mx/8.3.1/../../../../pic32mx/lib/fpu64\libc-musl.a(__sio_printf_dosux.o)
 .gnu.attributes
                0x00000000000003f0       0x10 c:/program files/microchip/xc32/v4.21/bin/bin/../../lib/gcc/pic32mx/8.3.1/../../../../pic32mx/lib/fpu64\libc-musl.a(__fmt_d.o)
 .gnu.attributes
                0x0000000000000400       0x10 c:/program files/microchip/xc32/v4.21/bin/bin/../../lib/gcc/pic32mx/8.3.1/../../../../pic32mx/lib/fpu64\libc-musl.a(__fmt_o.o)
 .gnu.attributes
                0x0000000000000410       0x10 c:/program files/microchip/xc32/v4.21/bin/bin/../../lib/gcc/pic32mx/8.3.1/../../../../pic32mx/lib/fpu64\libc-musl.a(__fmt_s.o)
 .gnu.attributes
                0x0000000000000420       0x10 c:/program files/microchip/xc32/v4.21/bin/bin/../../lib/gcc/pic32mx/8.3.1/../../../../pic32mx/lib/fpu64\libc-musl.a(__fmt_u.o)
 .gnu.attributes
                0x0000000000000430       0x10 c:/program files/microchip/xc32/v4.21/bin/bin/../../lib/gcc/pic32mx/8.3.1/../../../../pic32mx/lib/fpu64\libc-musl.a(__fmt_x.o)
 .gnu.attributes
                0x0000000000000440       0x10 c:/program files/microchip/xc32/v4.21/bin/bin/../../lib/gcc/pic32mx/8.3.1/../../../../pic32mx/lib/fpu64\libc-musl.a(__pop_int.o)
 .gnu.attributes
                0x0000000000000450       0x10 c:/program files/microchip/xc32/v4.21/bin/bin/../../lib/gcc/pic32mx/8.3.1/../../../../pic32mx/lib/fpu64\libc-musl.a(__pop_ptr.o)
 .gnu.attributes
                0x0000000000000460       0x10 c:/program files/microchip/xc32/v4.21/bin/bin/../../lib/gcc/pic32mx/8.3.1/../../../../pic32mx/lib/fpu64\libc-musl.a(__printf_core.o)
 .gnu.attributes
                0x0000000000000470       0x10 c:/program files/microchip/xc32/v4.21/bin/bin/../../lib/gcc/pic32mx/8.3.1/../../../../pic32mx/lib/fpu64\libc-musl.a(stdout.o)
 .gnu.attributes
                0x0000000000000480       0x10 c:/program files/microchip/xc32/v4.21/bin/bin/../../lib/gcc/pic32mx/8.3.1/../../../../pic32mx/lib/fpu64\libc-musl.a(atoi.o)
 .gnu.attributes
                0x0000000000000490       0x10 c:/program files/microchip/xc32/v4.21/bin/bin/../../lib/gcc/pic32mx/8.3.1/../../../../pic32mx/lib/fpu64\libc-musl.a(memmove.o)
 .gnu.attributes
                0x00000000000004a0       0x10 c:/program files/microchip/xc32/v4.21/bin/bin/../../lib/gcc/pic32mx/8.3.1/../../../../pic32mx/lib/fpu64\libc-musl.a(strcat.o)
 .gnu.attributes
                0x00000000000004b0       0x10 c:/program files/microchip/xc32/v4.21/bin/bin/../../lib/gcc/pic32mx/8.3.1/../../../../pic32mx/lib/fpu64\libc-musl.a(strncmp.o)
 .gnu.attributes
                0x00000000000004c0       0x10 c:/program files/microchip/xc32/v4.21/bin/bin/../../lib/gcc/pic32mx/8.3.1/../../../../pic32mx/lib/fpu64\libc-musl.a(tolower.o)
 .gnu.attributes
                0x00000000000004d0       0x10 c:/program files/microchip/xc32/v4.21/bin/bin/../../lib/gcc/pic32mx/8.3.1/../../../../pic32mx/lib/fpu64\libc-musl.a(toupper.o)
 .gnu.attributes
                0x00000000000004e0       0x10 c:/program files/microchip/xc32/v4.21/bin/bin/../../lib/gcc/pic32mx/8.3.1/../../../../pic32mx/lib/fpu64\libc-musl.a(__int_vfprintf.o)
 .gnu.attributes
                0x00000000000004f0       0x10 c:/program files/microchip/xc32/v4.21/bin/bin/../../lib/gcc/pic32mx/8.3.1/../../../../pic32mx/lib/fpu64\libc-musl.a(__fopen.o)
 .gnu.attributes
                0x0000000000000500       0x10 c:/program files/microchip/xc32/v4.21/bin/bin/../../lib/gcc/pic32mx/8.3.1/../../../../pic32mx/lib/fpu64\libc-musl.a(__io_init_needed.o)
 .gnu.attributes
                0x0000000000000510       0x10 c:/program files/microchip/xc32/v4.21/bin/bin/../../lib/gcc/pic32mx/8.3.1/../../../../pic32mx/lib/fpu64\libc-musl.a(__out.o)
 .gnu.attributes
                0x0000000000000520       0x10 c:/program files/microchip/xc32/v4.21/bin/bin/../../lib/gcc/pic32mx/8.3.1/../../../../pic32mx/lib/fpu64\libc-musl.a(__pop_float.o)
 .gnu.attributes
                0x0000000000000530       0x10 c:/program files/microchip/xc32/v4.21/bin/bin/../../lib/gcc/pic32mx/8.3.1/../../../../pic32mx/lib/fpu64\libc-musl.a(__stdio_close.o)
 .gnu.attributes
                0x0000000000000540       0x10 c:/program files/microchip/xc32/v4.21/bin/bin/../../lib/gcc/pic32mx/8.3.1/../../../../pic32mx/lib/fpu64\libc-musl.a(malloc.o)
 .gnu.attributes
                0x0000000000000550       0x10 c:/program files/microchip/xc32/v4.21/bin/bin/../../lib/gcc/pic32mx/8.3.1/../../../../pic32mx/lib/fpu64\libc-musl.a(expand_heap.o)
 .gnu.attributes
                0x0000000000000560       0x10 c:/program files/microchip/xc32/v4.21/bin/bin/../../lib/gcc/pic32mx/8.3.1/../../../../pic32mx/lib/fpu64\libc-musl.a(__init_stdio.o)
 .gnu.attributes
                0x0000000000000570       0x10 c:/program files/microchip/xc32/v4.21/bin/bin/../../lib/gcc/pic32mx/8.3.1/../../../../pic32mx/lib/fpu64\libc-musl.a(__io_file_needed.o)
 .gnu.attributes
                0x0000000000000580       0x10 c:/program files/microchip/xc32/v4.21/bin/bin/../../lib/gcc/pic32mx/8.3.1/../../../../pic32mx/lib/fpu64\libc-musl.a(libc.o)
 .gnu.attributes
                0x0000000000000590       0x10 c:/program files/microchip/xc32/v4.21/bin/bin/../../lib/gcc/pic32mx/8.3.1/fpu64\libgcc.a(_lshrdi3.o)
 .gnu.attributes
                0x00000000000005a0       0x10 c:/program files/microchip/xc32/v4.21/bin/bin/../../lib/gcc/pic32mx/8.3.1/fpu64\libgcc.a(_ashldi3.o)
 .gnu.attributes
                0x00000000000005b0       0x10 c:/program files/microchip/xc32/v4.21/bin/bin/../../lib/gcc/pic32mx/8.3.1/fpu64\libgcc.a(_umoddi3.o)
 .gnu.attributes
                0x00000000000005c0       0x10 c:/program files/microchip/xc32/v4.21/bin/bin/../../lib/gcc/pic32mx/8.3.1/../../../../pic32mx/lib/fpu64\libpic32.a(sbrk.o)
 .gnu.attributes
                0x00000000000005d0       0x10 c:/program files/microchip/xc32/v4.21/bin/bin/../../lib/gcc/pic32mx/8.3.1/../../../../pic32mx/lib/fpu64\libpic32.a(write.o)
 .gnu.attributes
                0x00000000000005e0       0x10 c:/program files/microchip/xc32/v4.21/bin/bin/../../lib/gcc/pic32mx/8.3.1/../../../../pic32mx/lib/fpu64\libpic32.a(lseek.o)
 .gnu.attributes
                0x00000000000005f0       0x10 c:/program files/microchip/xc32/v4.21/bin/bin/../../lib/gcc/pic32mx/8.3.1/../../../../pic32mx/lib/fpu64\libpic32.a(close.o)
 .gnu.attributes
                0x0000000000000600       0x10 c:/program files/microchip/xc32/v4.21/bin/bin/../../lib/gcc/pic32mx/8.3.1/../../../../pic32mx/lib/fpu64\libpic32.a(errno.o)
                0x000000009d000000                PROVIDE (__pic32_init_cache_program_base_addr = 0x9d000000)
                0x0000000080000000                PROVIDE (__pic32_init_cache_data_base_addr = 0x80000000)
                0x00000000d0000000                PROVIDE (__pic32_init_sqi_kseg2_virtual_base_addr = 0xd0000000)
                0x0000000030000000                PROVIDE (__pic32_init_sqi_kseg2_physical_base_addr = 0x30000000)
                0x000000000000001f                PROVIDE (__pic32_init_sqi_kseg2_entrylo0_bitset = 0x1f)
                0x00000000d0000000                __pic32_tlb_0_entryhi = __pic32_init_sqi_kseg2_virtual_base_addr
                0x0000000000c0001f                __pic32_tlb_0_entrylo0 = ((__pic32_init_sqi_kseg2_physical_base_addr >> 0x6) | __pic32_init_sqi_kseg2_entrylo0_bitset)
                0x0000000000c4001f                __pic32_tlb_0_entrylo1 = (__pic32_tlb_0_entrylo0 | ((__pic32_init_sqi_kseg2_physical_base_addr + 0x1000000) >> 0x6))
                0x00000000d2000000                __pic32_tlb_1_entryhi = (__pic32_init_sqi_kseg2_virtual_base_addr + 0x2000000)
                0x0000000000c8001f                __pic32_tlb_1_entrylo0 = (((__pic32_init_sqi_kseg2_physical_base_addr + 0x2000000) >> 0x6) | __pic32_init_sqi_kseg2_entrylo0_bitset)
                0x0000000000cc001f                __pic32_tlb_1_entrylo1 = (__pic32_tlb_1_entrylo0 | 0x40000)
                0x00000000f0000000                PROVIDE (__pic32_init_sqi_kseg3_virtual_base_addr = 0xf0000000)
                0x0000000030000000                PROVIDE (__pic32_init_sqi_kseg3_physical_base_addr = 0x30000000)
                0x0000000000000017                PROVIDE (__pic32_init_sqi_kseg3_entrylo0_bitset = 0x17)
                0x00000000f0000000                __pic32_tlb_2_entryhi = __pic32_init_sqi_kseg3_virtual_base_addr
                0x0000000000c00017                __pic32_tlb_2_entrylo0 = ((__pic32_init_sqi_kseg3_physical_base_addr >> 0x6) | __pic32_init_sqi_kseg3_entrylo0_bitset)
                0x0000000000c40017                __pic32_tlb_2_entrylo1 = (__pic32_tlb_2_entrylo0 | ((__pic32_init_sqi_kseg3_physical_base_addr + 0x1000000) >> 0x6))
                0x00000000f2000000                __pic32_tlb_3_entryhi = (__pic32_init_sqi_kseg3_virtual_base_addr + 0x2000000)
                0x0000000000c80017                __pic32_tlb_3_entrylo0 = (((__pic32_init_sqi_kseg3_physical_base_addr + 0x2000000) >> 0x6) | __pic32_init_sqi_kseg3_entrylo0_bitset)
                0x0000000000cc0017                __pic32_tlb_3_entrylo1 = (__pic32_tlb_3_entrylo0 | 0x40000)
                0x00000000c0000000                PROVIDE (__pic32_init_ebi_kseg2_virtual_base_addr = 0xc0000000)
                0x0000000020000000                PROVIDE (__pic32_init_ebi_kseg2_physical_base_addr = 0x20000000)
                0x000000000000001f                PROVIDE (__pic32_init_ebi_kseg2_entrylo0_bitset = 0x1f)
                0x00000000c0000000                __pic32_tlb_4_entryhi = __pic32_init_ebi_kseg2_virtual_base_addr
                0x000000000080001f                __pic32_tlb_4_entrylo0 = ((__pic32_init_ebi_kseg2_physical_base_addr >> 0x6) | __pic32_init_ebi_kseg2_entrylo0_bitset)
                0x000000000084001f                __pic32_tlb_4_entrylo1 = (__pic32_tlb_4_entrylo0 | ((__pic32_init_ebi_kseg2_physical_base_addr + 0x1000000) >> 0x6))
                0x00000000c2000000                __pic32_tlb_5_entryhi = (__pic32_init_ebi_kseg2_virtual_base_addr + 0x2000000)
                0x000000000088001f                __pic32_tlb_5_entrylo0 = (((__pic32_init_ebi_kseg2_physical_base_addr + 0x2000000) >> 0x6) | __pic32_init_ebi_kseg2_entrylo0_bitset)
                0x00000000008c001f                __pic32_tlb_5_entrylo1 = (__pic32_tlb_5_entrylo0 | 0x40000)
                0x00000000e0000000                PROVIDE (__pic32_init_ebi_kseg3_virtual_base_addr = 0xe0000000)
                0x0000000020000000                PROVIDE (__pic32_init_ebi_kseg3_physical_base_addr = 0x20000000)
                0x0000000000000017                PROVIDE (__pic32_init_ebi_kseg3_entrylo0_bitset = 0x17)
                0x00000000e0000000                __pic32_tlb_6_entryhi = __pic32_init_ebi_kseg3_virtual_base_addr
                0x0000000000800017                __pic32_tlb_6_entrylo0 = ((__pic32_init_ebi_kseg3_physical_base_addr >> 0x6) | __pic32_init_ebi_kseg3_entrylo0_bitset)
                0x0000000000840017                __pic32_tlb_6_entrylo1 = (__pic32_tlb_6_entrylo0 | ((__pic32_init_ebi_kseg3_physical_base_addr + 0x1000000) >> 0x6))
                0x00000000e2000000                __pic32_tlb_7_entryhi = (__pic32_init_ebi_kseg3_virtual_base_addr + 0x2000000)
                0x0000000000880017                __pic32_tlb_7_entrylo0 = (((__pic32_init_ebi_kseg3_physical_base_addr + 0x2000000) >> 0x6) | __pic32_init_ebi_kseg3_entrylo0_bitset)
                0x00000000008c0017                __pic32_tlb_7_entrylo1 = (__pic32_tlb_7_entrylo0 | 0x40000)

.tlb_init_values
                0x00000000bfc00670       0x60
                0x00000000bfc00670                . = ALIGN (0x4)
                0x00000000bfc00670                __pic32_tlb_init_values_begin = ABSOLUTE (.)
                0x00000000bfc00670        0x4 LONG 0xd0000000 __pic32_tlb_0_entryhi
                0x00000000bfc00674        0x4 LONG 0xc0001f __pic32_tlb_0_entrylo0
                0x00000000bfc00678        0x4 LONG 0xc4001f __pic32_tlb_0_entrylo1
                0x00000000bfc0067c        0x4 LONG 0xd2000000 __pic32_tlb_1_entryhi
                0x00000000bfc00680        0x4 LONG 0xc8001f __pic32_tlb_1_entrylo0
                0x00000000bfc00684        0x4 LONG 0xcc001f __pic32_tlb_1_entrylo1
                0x00000000bfc00688        0x4 LONG 0xf0000000 __pic32_tlb_2_entryhi
                0x00000000bfc0068c        0x4 LONG 0xc00017 __pic32_tlb_2_entrylo0
                0x00000000bfc00690        0x4 LONG 0xc40017 __pic32_tlb_2_entrylo1
                0x00000000bfc00694        0x4 LONG 0xf2000000 __pic32_tlb_3_entryhi
                0x00000000bfc00698        0x4 LONG 0xc80017 __pic32_tlb_3_entrylo0
                0x00000000bfc0069c        0x4 LONG 0xcc0017 __pic32_tlb_3_entrylo1
                0x00000000bfc006a0        0x4 LONG 0xc0000000 __pic32_tlb_4_entryhi
                0x00000000bfc006a4        0x4 LONG 0x80001f __pic32_tlb_4_entrylo0
                0x00000000bfc006a8        0x4 LONG 0x84001f __pic32_tlb_4_entrylo1
                0x00000000bfc006ac        0x4 LONG 0xc2000000 __pic32_tlb_5_entryhi
                0x00000000bfc006b0        0x4 LONG 0x88001f __pic32_tlb_5_entrylo0
                0x00000000bfc006b4        0x4 LONG 0x8c001f __pic32_tlb_5_entrylo1
                0x00000000bfc006b8        0x4 LONG 0xe0000000 __pic32_tlb_6_entryhi
                0x00000000bfc006bc        0x4 LONG 0x800017 __pic32_tlb_6_entrylo0
                0x00000000bfc006c0        0x4 LONG 0x840017 __pic32_tlb_6_entrylo1
                0x00000000bfc006c4        0x4 LONG 0xe2000000 __pic32_tlb_7_entryhi
                0x00000000bfc006c8        0x4 LONG 0x880017 __pic32_tlb_7_entrylo0
                0x00000000bfc006cc        0x4 LONG 0x8c0017 __pic32_tlb_7_entrylo1
                0x00000000bfc006d0                __pic32_tlb_init_values_end = ABSOLUTE (.)
                0x00000000bfc00678                __pic32_tlb_init_values_count = 0x8
                0x0000000000001000                _min_heap_size = 0x1000
LOAD C:\Users\spreg\AppData\Local\Temp\ccUeMUPf.o
LOAD C:\Users\spreg\AppData\Local\Temp\ccWZxsOs.o
LOAD C:\Users\spreg\AppData\Local\Temp\ccerR0EP.o
LOAD C:\Users\spreg\AppData\Local\Temp\ccAcOKZk.o
LOAD c:/program files/microchip/xc32/v4.21/bin/bin/../../lib/gcc/pic32mx/8.3.1/../../../../pic32mx/lib/fpu64\pic32_software_reset.o
LOAD c:/program files/microchip/xc32/v4.21/bin/bin/../../lib/gcc/pic32mx/8.3.1/fpu64\libgcc.a
START GROUP
LOAD c:/program files/microchip/xc32/v4.21/bin/bin/../../lib/gcc/pic32mx/8.3.1/../../../../pic32mx/lib/fpu64\libpic32.a
LOAD c:/program files/microchip/xc32/v4.21/bin/bin/../../lib/gcc/pic32mx/8.3.1/../../../../pic32mx/lib/fpu64\libdebug.a
LOAD c:/program files/microchip/xc32/v4.21/bin/bin/../../lib/gcc/pic32mx/8.3.1/../../../../pic32mx/lib/fpu64\libc-musl.a
LOAD c:/program files/microchip/xc32/v4.21/bin/bin/../../lib/gcc/pic32mx/8.3.1/../../../../pic32mx/lib/fpu64\libm-musl.a
LOAD c:/program files/microchip/xc32/v4.21/bin/bin/../../lib/gcc/pic32mx/8.3.1/../../../../pic32mx/lib/fpu64\libdspr2.a
LOAD c:/program files/microchip/xc32/v4.21/bin/bin/../../lib/gcc/pic32mx/8.3.1/../../../../pic32mx/lib/fpu64\libdsp.a
LOAD c:/program files/microchip/xc32/v4.21/bin/bin/../../lib/gcc/pic32mx/8.3.1/fpu64\libgcc.a
END GROUP
LOAD c:/program files/microchip/xc32/v4.21/bin/bin/../../lib/gcc/pic32mx/8.3.1/fpu64\libgcc.a
OUTPUT(dist/pic32mzef_c2_ak4954/production/pic32mz_ef_curiosity_v2.X.production.elf elf32-tradlittlemips)
LOAD stack
LOAD data_init

.reginfo        0x0000000000000000       0x18
 .reginfo       0x0000000000000000       0x18 c:/program files/microchip/xc32/v4.21/bin/bin/../../lib/gcc/pic32mx/8.3.1/../../../../pic32mx/lib/fpu64\debug-exception-return.o

__xc_reference_data
                0x0000000000000000       0x90
 __xc_reference_data
                0x0000000000000000       0x24 c:/program files/microchip/xc32/v4.21/bin/bin/../../lib/gcc/pic32mx/8.3.1/../../../../pic32mx/lib/fpu64\libc-musl.a(stdout.o)
                0x0000000000000000                __stdout_needs_init
 __xc_reference_data
                0x0000000000000024       0x48 c:/program files/microchip/xc32/v4.21/bin/bin/../../lib/gcc/pic32mx/8.3.1/../../../../pic32mx/lib/fpu64\libc-musl.a(__io_init_needed.o)
                0x0000000000000024                __io_init_needed
                0x0000000000000048                __io_init_needs_file
 __xc_reference_data
                0x000000000000006c       0x24 c:/program files/microchip/xc32/v4.21/bin/bin/../../lib/gcc/pic32mx/8.3.1/../../../../pic32mx/lib/fpu64\libc-musl.a(__io_file_needed.o)
                0x000000000000006c                __io_file_needed

.stack          0x000000008000ee30      0x400
 .stack         0x000000008000ee30      0x400 stack

.__vector_offset_BF810540_data
                0x00000000bf810540      0x1b0
 .__vector_offset_BF810540_data
                0x00000000bf810540      0x1b0 C:\Users\spreg\AppData\Local\Temp\ccerR0EP.o

.__vector_offset_BF8106F4_data
                0x00000000bf8106f4      0x148
 .__vector_offset_BF8106F4_data
                0x00000000bf8106f4      0x148 C:\Users\spreg\AppData\Local\Temp\ccerR0EP.o

.__vector_offset_BF810874_data
                0x00000000bf810874       0x18
 .__vector_offset_BF810874_data
                0x00000000bf810874       0x18 C:\Users\spreg\AppData\Local\Temp\ccerR0EP.o

.__vector_offset_BF810858_data
                0x00000000bf810858       0x14
 .__vector_offset_BF810858_data
                0x00000000bf810858       0x14 C:\Users\spreg\AppData\Local\Temp\ccerR0EP.o

.__vector_offset_BF810840_data
                0x00000000bf810840        0xc
 .__vector_offset_BF810840_data
                0x00000000bf810840        0xc C:\Users\spreg\AppData\Local\Temp\ccerR0EP.o

.__vector_offset_BF810850_data
                0x00000000bf810850        0x4
 .__vector_offset_BF810850_data
                0x00000000bf810850        0x4 C:\Users\spreg\AppData\Local\Temp\ccerR0EP.o

.__vector_offset_BF810894_data
                0x00000000bf810894        0x4
 .__vector_offset_BF810894_data
                0x00000000bf810894        0x4 C:\Users\spreg\AppData\Local\Temp\ccerR0EP.o

.data           0x0000000080004378       0xa8
 .data          0x0000000080004378       0x68 c:/program files/microchip/xc32/v4.21/bin/bin/../../lib/gcc/pic32mx/8.3.1/../../../../pic32mx/lib/fpu64\libc-musl.a(stdout.o)
                0x0000000080004378                __stdout_used
 .data          0x00000000800043e0       0x40 build/pic32mzef_c2_ak4954/production/_ext/79412797/initialization.o
                0x00000000800043e0                drvI2S0InitData
                0x0000000080004414                drvI2S0PlibAPI

.data           0x0000000080004420       0x36
 .data          0x0000000080004420       0x2c build/pic32mzef_c2_ak4954/production/_ext/344840758/sys_fs_media_manager.o
                0x0000000080004420                gSYSFSMediaManagerObj
                0x0000000080004438                gSYSFSVolumeName
 .data          0x000000008000444c        0xa build/pic32mzef_c2_ak4954/production/_ext/1360937237/main.o
                0x000000008000444c                txBuffer

.data._stdout   0x0000000080004458        0x4
 .data._stdout  0x0000000080004458        0x4 c:/program files/microchip/xc32/v4.21/bin/bin/../../lib/gcc/pic32mx/8.3.1/../../../../pic32mx/lib/fpu64\libc-musl.a(stdout.o)
                0x0000000080004458                _stdout

.bss            0x000000008000445c     0x7e60
 .bss           0x000000008000445c     0x7e60 build/pic32mzef_c2_ak4954/production/_ext/1360937237/app_sdcard_audio_task.o

.bss.gSYSFSMediaBlockBuffer
                0x00000000a000c2bc      0x800
 .bss.gSYSFSMediaBlockBuffer
                0x00000000a000c2bc      0x800 build/pic32mzef_c2_ak4954/production/_ext/344840758/sys_fs_media_manager.o
                0x00000000a000c2bc                gSYSFSMediaBlockBuffer

.bss.FATFSFileObject
                0x00000000a000cabc      0x460
 .bss.FATFSFileObject
                0x00000000a000cabc      0x460 build/pic32mzef_c2_ak4954/production/_ext/344840758/sys_fs_fat_interface.o

.bss            0x000000008000cf1c      0x250
 .bss           0x000000008000cf1c      0x250 build/pic32mzef_c2_ak4954/production/_ext/79412797/initialization.o

.bss.FATFSVolume
                0x00000000a000d16c      0x23c
 .bss.FATFSVolume
                0x00000000a000d16c      0x23c build/pic32mzef_c2_ak4954/production/_ext/344840758/sys_fs_fat_interface.o

.bss            0x000000008000d3a8      0x220
 .bss           0x000000008000d3a8      0x220 build/pic32mzef_c2_ak4954/production/_ext/1867241316/ff.o

.bss.gSysFsDiskData
                0x00000000a000d5d0      0x210
 .bss.gSysFsDiskData
                0x00000000a000d5d0      0x210 build/pic32mzef_c2_ak4954/production/_ext/1892335699/diskio.o

.bss.gSYSFSMediaBuffer
                0x00000000a000d7e0      0x200
 .bss.gSYSFSMediaBuffer
                0x00000000a000d7e0      0x200 build/pic32mzef_c2_ak4954/production/_ext/344840758/sys_fs_media_manager.o
                0x00000000a000d7e0                gSYSFSMediaBuffer

.bss            0x000000008000d9e0      0x1c4
 .bss           0x000000008000d9e0       0xec build/pic32mzef_c2_ak4954/production/_ext/784026422/sys_time.o
 .bss           0x000000008000dacc       0xd8 build/pic32mzef_c2_ak4954/production/_ext/1500991179/drv_sdspi.o

.bss            0x000000008000dba4       0x94
 .bss           0x000000008000dba4       0x94 build/pic32mzef_c2_ak4954/production/_ext/1543894318/plib_dmac.o

.bss.FATFSDirObject
                0x00000000a000dc38       0x70
 .bss.FATFSDirObject
                0x00000000a000dc38       0x70 build/pic32mzef_c2_ak4954/production/_ext/344840758/sys_fs_fat_interface.o

.bss            0x000000008000dca8       0xa4
 .bss           0x000000008000dca8       0x60 build/pic32mzef_c2_ak4954/production/_ext/2050519836/sys_dma.o
 .bss           0x000000008000dd08       0x44 build/pic32mzef_c2_ak4954/production/_ext/1337057836/drv_i2c.o

.bss            0x000000008000dd4c       0x74
 .bss           0x000000008000dd4c       0x40 build/pic32mzef_c2_ak4954/production/_ext/212299867/wav_dec.o
 .bss           0x000000008000dd8c       0x34 build/pic32mzef_c2_ak4954/production/_ext/232538270/plib_i2c1_master.o

.bss.gDrvSDSPITempCidData
                0x00000000a000ddc0       0x14
 .bss.gDrvSDSPITempCidData
                0x00000000a000ddc0       0x14 build/pic32mzef_c2_ak4954/production/_ext/1500991179/drv_sdspi.o

.bss.gDrvSDSPICidData
                0x00000000a000ddd4       0x14
 .bss.gDrvSDSPICidData
                0x00000000a000ddd4       0x14 build/pic32mzef_c2_ak4954/production/_ext/1500991179/drv_sdspi.o

.bss.gDrvSDSPICsdData
                0x00000000a000dde8       0x14
 .bss.gDrvSDSPICsdData
                0x00000000a000dde8       0x14 build/pic32mzef_c2_ak4954/production/_ext/1500991179/drv_sdspi.o

.bss.gDrvSDSPICmdResponseBuffer
                0x00000000a000ddfc       0x10
 .bss.gDrvSDSPICmdResponseBuffer
                0x00000000a000ddfc       0x10 build/pic32mzef_c2_ak4954/production/_ext/1500991179/drv_sdspi.o

.bss.gDrvSDSPIClkPulseData
                0x00000000a000de0c        0xa
 .bss.gDrvSDSPIClkPulseData
                0x00000000a000de0c        0xa build/pic32mzef_c2_ak4954/production/_ext/1500991179/drv_sdspi.o

.bss.errno      0x000000008000d5c8        0x4
 .bss.errno     0x000000008000d5c8        0x4 c:/program files/microchip/xc32/v4.21/bin/bin/../../lib/gcc/pic32mx/8.3.1/../../../../pic32mx/lib/fpu64\libpic32.a(errno.o)
                0x000000008000d5c8                errno

._debug_exception
                0x00000000bfc00480       0x2c
 ._debug_exception
                0x00000000bfc00480       0x2c c:/program files/microchip/xc32/v4.21/bin/bin/../../lib/gcc/pic32mx/8.3.1/../../../../pic32mx/lib/fpu64\debug-exception-return.o
                0x00000000bfc00480                __DbgExecReturn

.text.DRV_SDSPI_Tasks
                0x000000009d000280     0x2cc0
 .text.DRV_SDSPI_Tasks
                0x000000009d000280     0x2cc0 build/pic32mzef_c2_ak4954/production/_ext/1500991179/drv_sdspi.o
                0x000000009d000280                DRV_SDSPI_Tasks

.text._DRV_SDSPI_CommandSend
                0x000000009d002f40      0xd68
 .text._DRV_SDSPI_CommandSend
                0x000000009d002f40      0xd68 build/pic32mzef_c2_ak4954/production/_ext/1500991179/drv_sdspi.o

.text.f_mkfs    0x000000009d003ca8      0xb00
 .text.f_mkfs   0x000000009d003ca8      0xb00 build/pic32mzef_c2_ak4954/production/_ext/1867241316/ff.o
                0x000000009d003ca8                f_mkfs

.text.SYS_FS_MEDIA_MANAGER_Tasks
                0x000000009d0047a8      0x718
 .text.SYS_FS_MEDIA_MANAGER_Tasks
                0x000000009d0047a8      0x718 build/pic32mzef_c2_ak4954/production/_ext/344840758/sys_fs_media_manager.o
                0x000000009d0047a8                SYS_FS_MEDIA_MANAGER_Tasks

.dinit          0x000000009d004ec0      0x6d0
 .dinit         0x000000009d004ec0      0x6d0 data_init

.text           0x000000009d005590      0x6bc
 .text          0x000000009d005590      0x6bc build/pic32mzef_c2_ak4954/production/_ext/617362437/plib_cache_pic32mz.o
                0x000000009d005590                _pic32_init_cache
                0x000000009d005694                _pic32_clean_cache
                0x000000009d0056c0                _pic32_clean_dcache
                0x000000009d005718                _pic32_clean_dcache_nowrite
                0x000000009d005770                _pic32_clean_icache
                0x000000009d0057c8                _pic32_flush_cache
                0x000000009d0057f4                _pic32_flush_dcache
                0x000000009d005888                _pic32_flush_icache
                0x000000009d00591c                _pic32_lock_dcache
                0x000000009d005974                _pic32_lock_icache
                0x000000009d0059cc                _pic32_sync_icache
                0x000000009d005a08                _pic32_get_dcache_associativity
                0x000000009d005a3c                _pic32_get_icache_associativity
                0x000000009d005a74                _pic32_get_dcache_linesize
                0x000000009d005ab8                _pic32_get_icache_linesize
                0x000000009d005b00                _pic32_get_dcache_lines_per_way
                0x000000009d005b3c                _pic32_get_icache_lines_per_way
                0x000000009d005b7c                _pic32_get_dcache_size
                0x000000009d005be4                _pic32_get_icache_size

.text.follow_path
                0x000000009d005c4c      0x5f8
 .text.follow_path
                0x000000009d005c4c      0x5f8 build/pic32mzef_c2_ak4954/production/_ext/1867241316/ff.o

.text.DRV_AK4954_Tasks
                0x000000009d006244      0x5a4
 .text.DRV_AK4954_Tasks
                0x000000009d006244      0x5a4 build/pic32mzef_c2_ak4954/production/_ext/1856562345/drv_ak4954.o
                0x000000009d006244                DRV_AK4954_Tasks

.text.__printf_core
                0x000000009d0067e8      0x580
 .text.__printf_core
                0x000000009d0067e8      0x580 c:/program files/microchip/xc32/v4.21/bin/bin/../../lib/gcc/pic32mx/8.3.1/../../../../pic32mx/lib/fpu64\libc-musl.a(__printf_core.o)
                0x000000009d0067e8                __printf_core

.text.mount_volume
                0x000000009d006d68      0x530
 .text.mount_volume
                0x000000009d006d68      0x530 build/pic32mzef_c2_ak4954/production/_ext/1867241316/ff.o

.text.I2C1_MASTER_InterruptHandler
                0x000000009d007298      0x4d0
 .text.I2C1_MASTER_InterruptHandler
                0x000000009d007298      0x4d0 build/pic32mzef_c2_ak4954/production/_ext/232538270/plib_i2c1_master.o
                0x000000009d007298                I2C1_MASTER_InterruptHandler

.text.f_printf  0x000000009d007768      0x4c8
 .text.f_printf
                0x000000009d007768      0x4c8 build/pic32mzef_c2_ak4954/production/_ext/1867241316/ff.o
                0x000000009d007768                f_printf

.text._DRV_I2C_WriteReadTransferAdd
                0x000000009d007c30      0x454
 .text._DRV_I2C_WriteReadTransferAdd
                0x000000009d007c30      0x454 build/pic32mzef_c2_ak4954/production/_ext/1337057836/drv_i2c.o

.text.dir_register
                0x000000009d008084      0x420
 .text.dir_register
                0x000000009d008084      0x420 build/pic32mzef_c2_ak4954/production/_ext/1867241316/ff.o

.text           0x000000009d0084a4      0x774
 .text          0x000000009d0084a4      0x3bc c:/program files/microchip/xc32/v4.21/bin/bin/../../lib/gcc/pic32mx/8.3.1/fpu64\libgcc.a(_udivdi3.o)
                0x000000009d0084a4                __udivdi3
 .text          0x000000009d008860      0x3b8 c:/program files/microchip/xc32/v4.21/bin/bin/../../lib/gcc/pic32mx/8.3.1/fpu64\libgcc.a(_umoddi3.o)
                0x000000009d008860                __umoddi3

.rodata         0x000000009d008c18      0x3b0
 .rodata        0x000000009d008c18      0x3b0 build/pic32mzef_c2_ak4954/production/_ext/1867241316/ffunicode.o

.text.f_open    0x000000009d008fc8      0x388
 .text.f_open   0x000000009d008fc8      0x388 build/pic32mzef_c2_ak4954/production/_ext/1867241316/ff.o
                0x000000009d008fc8                f_open

.text.DRV_SDSPI_SetupXfer
                0x000000009d009350      0x370
 .text.DRV_SDSPI_SetupXfer
                0x000000009d009350      0x370 build/pic32mzef_c2_ak4954/production/_ext/1500991179/drv_sdspi.o
                0x000000009d009350                DRV_SDSPI_SetupXfer

.text.SPI1_RX_InterruptHandler
                0x000000009d0096c0      0x320
 .text.SPI1_RX_InterruptHandler
                0x000000009d0096c0      0x320 build/pic32mzef_c2_ak4954/production/_ext/603446335/plib_spi1_master.o
                0x000000009d0096c0                SPI1_RX_InterruptHandler

.text.f_write   0x000000009d0099e0      0x310
 .text.f_write  0x000000009d0099e0      0x310 build/pic32mzef_c2_ak4954/production/_ext/1867241316/ff.o
                0x000000009d0099e0                f_write

.text.SPI1_WriteRead
                0x000000009d009cf0      0x304
 .text.SPI1_WriteRead
                0x000000009d009cf0      0x304 build/pic32mzef_c2_ak4954/production/_ext/603446335/plib_spi1_master.o
                0x000000009d009cf0                SPI1_WriteRead

.text.I2S2_RefClockSet
                0x000000009d009ff4      0x2e8
 .text.I2S2_RefClockSet
                0x000000009d009ff4      0x2e8 build/pic32mzef_c2_ak4954/production/_ext/563155524/plib_i2s2.o
                0x000000009d009ff4                I2S2_RefClockSet

.text.SYS_FS_MEDIA_MANAGER_SectorWrite
                0x000000009d00a2dc      0x2dc
 .text.SYS_FS_MEDIA_MANAGER_SectorWrite
                0x000000009d00a2dc      0x2dc build/pic32mzef_c2_ak4954/production/_ext/344840758/sys_fs_media_manager.o
                0x000000009d00a2dc                SYS_FS_MEDIA_MANAGER_SectorWrite

.text.f_lseek   0x000000009d00a5b8      0x2d8
 .text.f_lseek  0x000000009d00a5b8      0x2d8 build/pic32mzef_c2_ak4954/production/_ext/1867241316/ff.o
                0x000000009d00a5b8                f_lseek

.text.dir_find  0x000000009d00a890      0x2bc
 .text.dir_find
                0x000000009d00a890      0x2bc build/pic32mzef_c2_ak4954/production/_ext/1867241316/ff.o

.text.get_fileinfo
                0x000000009d00ab4c      0x2b8
 .text.get_fileinfo
                0x000000009d00ab4c      0x2b8 build/pic32mzef_c2_ak4954/production/_ext/1867241316/ff.o

.text.f_read    0x000000009d00ae04      0x2b0
 .text.f_read   0x000000009d00ae04      0x2b0 build/pic32mzef_c2_ak4954/production/_ext/1867241316/ff.o
                0x000000009d00ae04                f_read

.text.f_setlabel
                0x000000009d00b0b4      0x2ac
 .text.f_setlabel
                0x000000009d00b0b4      0x2ac build/pic32mzef_c2_ak4954/production/_ext/1867241316/ff.o
                0x000000009d00b0b4                f_setlabel

.text.create_partition
                0x000000009d00b360      0x294
 .text.create_partition
                0x000000009d00b360      0x294 build/pic32mzef_c2_ak4954/production/_ext/1867241316/ff.o

.text._DRV_I2C_PLibCallbackHandler
                0x000000009d00b5f4      0x27c
 .text._DRV_I2C_PLibCallbackHandler
                0x000000009d00b5f4      0x27c build/pic32mzef_c2_ak4954/production/_ext/1337057836/drv_i2c.o

.text.SYS_FS_Mount
                0x000000009d00b870      0x268
 .text.SYS_FS_Mount
                0x000000009d00b870      0x268 build/pic32mzef_c2_ak4954/production/_ext/344840758/sys_fs.o
                0x000000009d00b870                SYS_FS_Mount

.text.dir_read  0x000000009d00bad8      0x248
 .text.dir_read
                0x000000009d00bad8      0x248 build/pic32mzef_c2_ak4954/production/_ext/1867241316/ff.o

.text.f_getcwd  0x000000009d00bd20      0x240
 .text.f_getcwd
                0x000000009d00bd20      0x240 build/pic32mzef_c2_ak4954/production/_ext/1867241316/ff.o
                0x000000009d00bd20                f_getcwd

.text.create_chain
                0x000000009d00bf60      0x234
 .text.create_chain
                0x000000009d00bf60      0x234 build/pic32mzef_c2_ak4954/production/_ext/1867241316/ff.o

.text.APP_SDCARD_AUDIO_Tasks
                0x000000009d00c194      0x22c
 .text.APP_SDCARD_AUDIO_Tasks
                0x000000009d00c194      0x22c build/pic32mzef_c2_ak4954/production/_ext/1360937237/app_sdcard_audio_task.o
                0x000000009d00c194                APP_SDCARD_AUDIO_Tasks

.text._DRV_I2S_BufferQueueTask
                0x000000009d00c3c0      0x21c
 .text._DRV_I2S_BufferQueueTask
                0x000000009d00c3c0      0x21c build/pic32mzef_c2_ak4954/production/_ext/450163651/drv_i2s.o

.text.APP_SDCARD_AUDIO_FillOutputBuffer
                0x000000009d00c5dc      0x208
 .text.APP_SDCARD_AUDIO_FillOutputBuffer
                0x000000009d00c5dc      0x208 build/pic32mzef_c2_ak4954/production/_ext/1360937237/app_sdcard_audio_task.o
                0x000000009d00c5dc                APP_SDCARD_AUDIO_FillOutputBuffer

.text.__fmt_x   0x000000009d00c7e4      0x208
 .text.__fmt_x  0x000000009d00c7e4      0x208 c:/program files/microchip/xc32/v4.21/bin/bin/../../lib/gcc/pic32mx/8.3.1/../../../../pic32mx/lib/fpu64\libc-musl.a(__fmt_x.o)
                0x000000009d00c7e4                __fmt_x_needed
                0x000000009d00c7e4                __fmt_x

.text.disk_write
                0x000000009d00c9ec      0x1fc
 .text.disk_write
                0x000000009d00c9ec      0x1fc build/pic32mzef_c2_ak4954/production/_ext/1892335699/diskio.o
                0x000000009d00c9ec                disk_write

.text.put_fat   0x000000009d00cbe8      0x1f4
 .text.put_fat  0x000000009d00cbe8      0x1f4 build/pic32mzef_c2_ak4954/production/_ext/1867241316/ff.o

.text.disk_read
                0x000000009d00cddc      0x1f0
 .text.disk_read
                0x000000009d00cddc      0x1f0 build/pic32mzef_c2_ak4954/production/_ext/1892335699/diskio.o
                0x000000009d00cddc                disk_read

.text.f_mkdir   0x000000009d00cfcc      0x1e8
 .text.f_mkdir  0x000000009d00cfcc      0x1e8 build/pic32mzef_c2_ak4954/production/_ext/1867241316/ff.o
                0x000000009d00cfcc                f_mkdir

.text.APP_SDCARD_AUDIO_Card_FS_ReadDirFlat
                0x000000009d00d1b4      0x1e4
 .text.APP_SDCARD_AUDIO_Card_FS_ReadDirFlat
                0x000000009d00d1b4      0x1e4 build/pic32mzef_c2_ak4954/production/_ext/1360937237/app_sdcard_audio_task.o
                0x000000009d00d1b4                APP_SDCARD_AUDIO_Card_FS_ReadDirFlat

.text.CORE_TIMER_Handler
                0x000000009d00d398      0x1d0
 .text.CORE_TIMER_Handler
                0x000000009d00d398      0x1d0 build/pic32mzef_c2_ak4954/production/_ext/79412797/interrupts.o
                0x000000009d00d398                CORE_TIMER_Handler

.text.SPI1_RX_Handler
                0x000000009d00d568      0x1d0
 .text.SPI1_RX_Handler
                0x000000009d00d568      0x1d0 build/pic32mzef_c2_ak4954/production/_ext/79412797/interrupts.o
                0x000000009d00d568                SPI1_RX_Handler

.text.SPI1_TX_Handler
                0x000000009d00d738      0x1d0
 .text.SPI1_TX_Handler
                0x000000009d00d738      0x1d0 build/pic32mzef_c2_ak4954/production/_ext/79412797/interrupts.o
                0x000000009d00d738                SPI1_TX_Handler

.text.I2C1_BUS_Handler
                0x000000009d00d908      0x1d0
 .text.I2C1_BUS_Handler
                0x000000009d00d908      0x1d0 build/pic32mzef_c2_ak4954/production/_ext/79412797/interrupts.o
                0x000000009d00d908                I2C1_BUS_Handler

.text.I2C1_MASTER_Handler
                0x000000009d00dad8      0x1d0
 .text.I2C1_MASTER_Handler
                0x000000009d00dad8      0x1d0 build/pic32mzef_c2_ak4954/production/_ext/79412797/interrupts.o
                0x000000009d00dad8                I2C1_MASTER_Handler

.text.DMA0_Handler
                0x000000009d00dca8      0x1d0
 .text.DMA0_Handler
                0x000000009d00dca8      0x1d0 build/pic32mzef_c2_ak4954/production/_ext/79412797/interrupts.o
                0x000000009d00dca8                DMA0_Handler

.text.DMA1_Handler
                0x000000009d00de78      0x1d0
 .text.DMA1_Handler
                0x000000009d00de78      0x1d0 build/pic32mzef_c2_ak4954/production/_ext/79412797/interrupts.o
                0x000000009d00de78                DMA1_Handler

.text.SYS_TIME_PLIBCallback
                0x000000009d00e048      0x1cc
 .text.SYS_TIME_PLIBCallback
                0x000000009d00e048      0x1cc build/pic32mzef_c2_ak4954/production/_ext/784026422/sys_time.o

.text.SYS_FS_FileOpen
                0x000000009d00e214      0x1c8
 .text.SYS_FS_FileOpen
                0x000000009d00e214      0x1c8 build/pic32mzef_c2_ak4954/production/_ext/344840758/sys_fs.o
                0x000000009d00e214                SYS_FS_FileOpen

.text.DRV_SDSPI_Initialize
                0x000000009d00e3dc      0x1c0
 .text.DRV_SDSPI_Initialize
                0x000000009d00e3dc      0x1c0 build/pic32mzef_c2_ak4954/production/_ext/1500991179/drv_sdspi.o
                0x000000009d00e3dc                DRV_SDSPI_Initialize

.text.f_rename  0x000000009d00e59c      0x1bc
 .text.f_rename
                0x000000009d00e59c      0x1bc build/pic32mzef_c2_ak4954/production/_ext/1867241316/ff.o
                0x000000009d00e59c                f_rename

.rodata         0x000000009d00e758      0x1b0
 .rodata        0x000000009d00e758      0x1b0 build/pic32mzef_c2_ak4954/production/_ext/79412797/initialization.o
                0x000000009d00e758                sysTimeInitData
                0x000000009d00e760                sysTimePlibAPI
                0x000000009d00e77c                sysFSInit
                0x000000009d00e784                FatFsFunctions
                0x000000009d00e80c                sysfsMountTable
                0x000000009d00e81c                drvak4954Codec0InitData
                0x000000009d00e838                drvI2C0InitData
                0x000000009d00e854                drvI2C0InterruptSources
                0x000000009d00e868                drvI2C0PLibAPI
                0x000000009d00e884                drvSDSPI0InitData
                0x000000009d00e8bc                drvSDSPI0remapClockPhase
                0x000000009d00e8c4                drvSDSPI0remapClockPolarity
                0x000000009d00e8cc                drvSDSPI0remapDataBits
                0x000000009d00e8f0                drvSDSPI0PlibAPI

.text.DRV_AK4954_Open
                0x000000009d00e908      0x1ac
 .text.DRV_AK4954_Open
                0x000000009d00e908      0x1ac build/pic32mzef_c2_ak4954/production/_ext/1856562345/drv_ak4954.o
                0x000000009d00e908                DRV_AK4954_Open

.text.DRV_I2S_WriteBufferAdd
                0x000000009d00eab4      0x1ac
 .text.DRV_I2S_WriteBufferAdd
                0x000000009d00eab4      0x1ac build/pic32mzef_c2_ak4954/production/_ext/450163651/drv_i2s.o
                0x000000009d00eab4                DRV_I2S_WriteBufferAdd

.text           0x000000009d00ec60      0x1a0
 .text          0x000000009d00ec60      0x1a0 c:/program files/microchip/xc32/v4.21/bin/bin/../../lib/gcc/pic32mx/8.3.1/../../../../pic32mx/lib/fpu64\libpic32.a(strcpy.o)
                0x000000009d00ec60                strcpy

.text.f_getfree
                0x000000009d00ee00      0x198
 .text.f_getfree
                0x000000009d00ee00      0x198 build/pic32mzef_c2_ak4954/production/_ext/1867241316/ff.o
                0x000000009d00ee00                f_getfree

.text.DRV_I2C_Open
                0x000000009d00ef98      0x194
 .text.DRV_I2C_Open
                0x000000009d00ef98      0x194 build/pic32mzef_c2_ak4954/production/_ext/1337057836/drv_i2c.o
                0x000000009d00ef98                DRV_I2C_Open

.text.check_fs  0x000000009d00f12c      0x18c
 .text.check_fs
                0x000000009d00f12c      0x18c build/pic32mzef_c2_ak4954/production/_ext/1867241316/ff.o

.text.__pop_int
                0x000000009d00f2b8      0x188
 .text.__pop_int
                0x000000009d00f2b8      0x188 c:/program files/microchip/xc32/v4.21/bin/bin/../../lib/gcc/pic32mx/8.3.1/../../../../pic32mx/lib/fpu64\libc-musl.a(__pop_int.o)
                0x000000009d00f2b8                __pop_int
                0x000000009d00f2b8                __pop_int_needed

.text.APP_Tasks
                0x000000009d00f440      0x184
 .text.APP_Tasks
                0x000000009d00f440      0x184 build/pic32mzef_c2_ak4954/production/_ext/1360937237/app.o
                0x000000009d00f440                APP_Tasks

.text.dir_next  0x000000009d00f5c4      0x180
 .text.dir_next
                0x000000009d00f5c4      0x180 build/pic32mzef_c2_ak4954/production/_ext/1867241316/ff.o

.text.SYS_TIME_HwTimerCompareUpdate
                0x000000009d00f744      0x178
 .text.SYS_TIME_HwTimerCompareUpdate
                0x000000009d00f744      0x178 build/pic32mzef_c2_ak4954/production/_ext/784026422/sys_time.o

.text.get_fat   0x000000009d00f8bc      0x174
 .text.get_fat  0x000000009d00f8bc      0x174 build/pic32mzef_c2_ak4954/production/_ext/1867241316/ff.o

.text.DRV_SDSPI_Open
                0x000000009d00fa30      0x16c
 .text.DRV_SDSPI_Open
                0x000000009d00fa30      0x16c build/pic32mzef_c2_ak4954/production/_ext/1500991179/drv_sdspi.o
                0x000000009d00fa30                DRV_SDSPI_Open

.text.SYS_FS_FileSeek
                0x000000009d00fb9c      0x16c
 .text.SYS_FS_FileSeek
                0x000000009d00fb9c      0x16c build/pic32mzef_c2_ak4954/production/_ext/344840758/sys_fs.o
                0x000000009d00fb9c                SYS_FS_FileSeek

.text.dir_sdi   0x000000009d00fd08      0x168
 .text.dir_sdi  0x000000009d00fd08      0x168 build/pic32mzef_c2_ak4954/production/_ext/1867241316/ff.o

.text.SYS_FS_Unmount
                0x000000009d00fe70      0x168
 .text.SYS_FS_Unmount
                0x000000009d00fe70      0x168 build/pic32mzef_c2_ak4954/production/_ext/344840758/sys_fs.o
                0x000000009d00fe70                SYS_FS_Unmount

.text           0x000000009d00ffd8      0x2d0
 .text          0x000000009d00ffd8      0x168 c:/program files/microchip/xc32/v4.21/bin/bin/../../lib/gcc/pic32mx/8.3.1/../../../../pic32mx/lib/fpu64\libpic32.a(memcpy.o)
                0x000000009d00ffd8                memcpy
 .text          0x000000009d010140      0x168 c:/program files/microchip/xc32/v4.21/bin/bin/../../lib/gcc/pic32mx/8.3.1/../../../../pic32mx/lib/fpu64\libpic32.a(strlen.o)
                0x000000009d010140                strlen

.text.APP_SDCARD_AUDIO_BufferEventHandler
                0x000000009d0102a8      0x164
 .text.APP_SDCARD_AUDIO_BufferEventHandler
                0x000000009d0102a8      0x164 build/pic32mzef_c2_ak4954/production/_ext/1360937237/app_sdcard_audio_task.o
                0x000000009d0102a8                APP_SDCARD_AUDIO_BufferEventHandler

.text.DRV_AK4954_Initialize
                0x000000009d01040c      0x160
 .text.DRV_AK4954_Initialize
                0x000000009d01040c      0x160 build/pic32mzef_c2_ak4954/production/_ext/1856562345/drv_ak4954.o
                0x000000009d01040c                DRV_AK4954_Initialize

.text.GPIO_Initialize
                0x000000009d01056c      0x160
 .text.GPIO_Initialize
                0x000000009d01056c      0x160 build/pic32mzef_c2_ak4954/production/_ext/1543801802/plib_gpio.o
                0x000000009d01056c                GPIO_Initialize

.text.DRV_AK4954_VolumeSet
                0x000000009d0106cc      0x15c
 .text.DRV_AK4954_VolumeSet
                0x000000009d0106cc      0x15c build/pic32mzef_c2_ak4954/production/_ext/1856562345/drv_ak4954.o
                0x000000009d0106cc                DRV_AK4954_VolumeSet

.text.f_truncate
                0x000000009d010828      0x15c
 .text.f_truncate
                0x000000009d010828      0x15c build/pic32mzef_c2_ak4954/production/_ext/1867241316/ff.o
                0x000000009d010828                f_truncate

.text.SPI1_TX_InterruptHandler
                0x000000009d010984      0x158
 .text.SPI1_TX_InterruptHandler
                0x000000009d010984      0x158 build/pic32mzef_c2_ak4954/production/_ext/603446335/plib_spi1_master.o
                0x000000009d010984                SPI1_TX_InterruptHandler

.text.SYS_FS_GetDisk
                0x000000009d010adc      0x158
 .text.SYS_FS_GetDisk
                0x000000009d010adc      0x158 build/pic32mzef_c2_ak4954/production/_ext/344840758/sys_fs.o

.text.APP_SDCARD_AUDIO_Card_TraverseAllFiles
                0x000000009d010c34      0x158
 .text.APP_SDCARD_AUDIO_Card_TraverseAllFiles
                0x000000009d010c34      0x158 build/pic32mzef_c2_ak4954/production/_ext/1360937237/app_sdcard_audio_task.o
                0x000000009d010c34                APP_SDCARD_AUDIO_Card_TraverseAllFiles

.text.DRV_SDSPI_Close
                0x000000009d010d8c      0x154
 .text.DRV_SDSPI_Close
                0x000000009d010d8c      0x154 build/pic32mzef_c2_ak4954/production/_ext/1500991179/drv_sdspi.o
                0x000000009d010d8c                DRV_SDSPI_Close

.text.__fmt_d   0x000000009d010ee0      0x150
 .text.__fmt_d  0x000000009d010ee0      0x150 c:/program files/microchip/xc32/v4.21/bin/bin/../../lib/gcc/pic32mx/8.3.1/../../../../pic32mx/lib/fpu64\libc-musl.a(__fmt_d.o)
                0x000000009d010ee0                __fmt_d_needed
                0x000000009d010ee0                __fmt_d

.text.SYS_FS_DirOpen
                0x000000009d011030      0x144
 .text.SYS_FS_DirOpen
                0x000000009d011030      0x144 build/pic32mzef_c2_ak4954/production/_ext/344840758/sys_fs.o
                0x000000009d011030                SYS_FS_DirOpen

.rodata         0x000000009d011174      0x140
 .rodata        0x000000009d011174      0x140 build/pic32mzef_c2_ak4954/production/_ext/1500991179/drv_sdspi.o
                0x000000009d011174                gDrvSDSPICmdTable

.text.ff_wtoupper
                0x000000009d0112b4      0x140
 .text.ff_wtoupper
                0x000000009d0112b4      0x140 build/pic32mzef_c2_ak4954/production/_ext/1867241316/ffunicode.o
                0x000000009d0112b4                ff_wtoupper

.text.SYS_TIME_Initialize
                0x000000009d0113f4      0x13c
 .text.SYS_TIME_Initialize
                0x000000009d0113f4      0x13c build/pic32mzef_c2_ak4954/production/_ext/784026422/sys_time.o
                0x000000009d0113f4                SYS_TIME_Initialize

.text.__cvt_u   0x000000009d011530      0x13c
 .text.__cvt_u  0x000000009d011530      0x13c c:/program files/microchip/xc32/v4.21/bin/bin/../../lib/gcc/pic32mx/8.3.1/../../../../pic32mx/lib/fpu64\libc-musl.a(__fmt_u.o)
                0x000000009d011530                __cvt_u

.text.DMA1_InterruptHandler
                0x000000009d01166c      0x138
 .text.DMA1_InterruptHandler
                0x000000009d01166c      0x138 build/pic32mzef_c2_ak4954/production/_ext/1543894318/plib_dmac.o
                0x000000009d01166c                DMA1_InterruptHandler

.text.DMA0_InterruptHandler
                0x000000009d0117a4      0x134
 .text.DMA0_InterruptHandler
                0x000000009d0117a4      0x134 build/pic32mzef_c2_ak4954/production/_ext/1543894318/plib_dmac.o
                0x000000009d0117a4                DMA0_InterruptHandler

.text.f_unlink  0x000000009d0118d8      0x134
 .text.f_unlink
                0x000000009d0118d8      0x134 build/pic32mzef_c2_ak4954/production/_ext/1867241316/ff.o
                0x000000009d0118d8                f_unlink

.text.inc_lock  0x000000009d011a0c      0x130
 .text.inc_lock
                0x000000009d011a0c      0x130 build/pic32mzef_c2_ak4954/production/_ext/1867241316/ff.o

.text.f_getlabel
                0x000000009d011b3c      0x12c
 .text.f_getlabel
                0x000000009d011b3c      0x12c build/pic32mzef_c2_ak4954/production/_ext/1867241316/ff.o
                0x000000009d011b3c                f_getlabel

.text.SYS_DMA_ChannelTransfer
                0x000000009d011c68      0x128
 .text.SYS_DMA_ChannelTransfer
                0x000000009d011c68      0x128 build/pic32mzef_c2_ak4954/production/_ext/2050519836/sys_dma.o
                0x000000009d011c68                SYS_DMA_ChannelTransfer

.text.SYS_TIME_TimerObjectCreate
                0x000000009d011d90      0x128
 .text.SYS_TIME_TimerObjectCreate
                0x000000009d011d90      0x128 build/pic32mzef_c2_ak4954/production/_ext/784026422/sys_time.o

.text.SYS_Initialize
                0x000000009d011eb8      0x124
 .text.SYS_Initialize
                0x000000009d011eb8      0x124 build/pic32mzef_c2_ak4954/production/_ext/79412797/initialization.o
                0x000000009d011eb8                SYS_Initialize

.text.APP_SDCARD_AUDIO_Card_Tasks
                0x000000009d011fdc      0x124
 .text.APP_SDCARD_AUDIO_Card_Tasks
                0x000000009d011fdc      0x124 build/pic32mzef_c2_ak4954/production/_ext/1360937237/app_sdcard_audio_task.o
                0x000000009d011fdc                APP_SDCARD_AUDIO_Card_Tasks

.text.FATFS_open
                0x000000009d012100      0x120
 .text.FATFS_open
                0x000000009d012100      0x120 build/pic32mzef_c2_ak4954/production/_ext/344840758/sys_fs_fat_interface.o
                0x000000009d012100                FATFS_open

.text           0x000000009d012220      0x120
 .text          0x000000009d012220      0x120 c:/program files/microchip/xc32/v4.21/bin/bin/../../lib/gcc/pic32mx/8.3.1/../../../../pic32mx/lib/fpu64\libpic32.a(strcmp.o)
                0x000000009d012220                strcmp

.text.APP_SDCARD_AUDIO_Card_isSupportedAudioFile
                0x000000009d012340      0x11c
 .text.APP_SDCARD_AUDIO_Card_isSupportedAudioFile
                0x000000009d012340      0x11c build/pic32mzef_c2_ak4954/production/_ext/1360937237/app_sdcard_audio_task.o
                0x000000009d012340                APP_SDCARD_AUDIO_Card_isSupportedAudioFile

.text.APP_SDCARD_AUDIO_Card_FillBuffer
                0x000000009d01245c      0x114
 .text.APP_SDCARD_AUDIO_Card_FillBuffer
                0x000000009d01245c      0x114 build/pic32mzef_c2_ak4954/production/_ext/1360937237/app_sdcard_audio_task.o
                0x000000009d01245c                APP_SDCARD_AUDIO_Card_FillBuffer

.text.remove_chain
                0x000000009d012570      0x108
 .text.remove_chain
                0x000000009d012570      0x108 build/pic32mzef_c2_ak4954/production/_ext/1867241316/ff.o

.text.f_sync    0x000000009d012678      0x108
 .text.f_sync   0x000000009d012678      0x108 build/pic32mzef_c2_ak4954/production/_ext/1867241316/ff.o
                0x000000009d012678                f_sync

.text.f_opendir
                0x000000009d012780      0x108
 .text.f_opendir
                0x000000009d012780      0x108 build/pic32mzef_c2_ak4954/production/_ext/1867241316/ff.o
                0x000000009d012780                f_opendir

.text.DMAC_ChannelTransfer
                0x000000009d012888      0x104
 .text.DMAC_ChannelTransfer
                0x000000009d012888      0x104 build/pic32mzef_c2_ak4954/production/_ext/1543894318/plib_dmac.o
                0x000000009d012888                DMAC_ChannelTransfer

.text.I2C1_TransferSetup
                0x000000009d01298c      0x104
 .text.I2C1_TransferSetup
                0x000000009d01298c      0x104 build/pic32mzef_c2_ak4954/production/_ext/232538270/plib_i2c1_master.o
                0x000000009d01298c                I2C1_TransferSetup

.text.DRV_I2S_Initialize
                0x000000009d012a90      0x100
 .text.DRV_I2S_Initialize
                0x000000009d012a90      0x100 build/pic32mzef_c2_ak4954/production/_ext/450163651/drv_i2s.o
                0x000000009d012a90                DRV_I2S_Initialize

.text.DMAC_ChannelSetAddresses
                0x000000009d012b90      0x100
 .text.DMAC_ChannelSetAddresses
                0x000000009d012b90      0x100 build/pic32mzef_c2_ak4954/production/_ext/1543894318/plib_dmac.o

.text.__pad     0x000000009d012c90      0x100
 .text.__pad    0x000000009d012c90      0x100 c:/program files/microchip/xc32/v4.21/bin/bin/../../lib/gcc/pic32mx/8.3.1/../../../../pic32mx/lib/fpu64\libc-musl.a(__printf_core.o)
                0x000000009d012c90                __pad

.text._DRV_I2C_ResourceLock
                0x000000009d012d90       0xf4
 .text._DRV_I2C_ResourceLock
                0x000000009d012d90       0xf4 build/pic32mzef_c2_ak4954/production/_ext/1337057836/drv_i2c.o

.text.__fmt_o   0x000000009d012e84       0xf4
 .text.__fmt_o  0x000000009d012e84       0xf4 c:/program files/microchip/xc32/v4.21/bin/bin/../../lib/gcc/pic32mx/8.3.1/../../../../pic32mx/lib/fpu64\libc-musl.a(__fmt_o.o)
                0x000000009d012e84                __fmt_o
                0x000000009d012e84                __fmt_o_needed

.text.SYS_TIME_AddToList
                0x000000009d000010       0xec
 .text.SYS_TIME_AddToList
                0x000000009d000010       0xec build/pic32mzef_c2_ak4954/production/_ext/784026422/sys_time.o

.text.DECODER_EventHandler
                0x000000009d012f78       0xec
 .text.DECODER_EventHandler
                0x000000009d012f78       0xec build/pic32mzef_c2_ak4954/production/_ext/1360937237/app_sdcard_audio_task.o
                0x000000009d012f78                DECODER_EventHandler

.text.FATFS_unmount
                0x000000009d013064       0xe8
 .text.FATFS_unmount
                0x000000009d013064       0xe8 build/pic32mzef_c2_ak4954/production/_ext/344840758/sys_fs_fat_interface.o
                0x000000009d013064                FATFS_unmount

.text.SYS_FS_CurrentDriveSet
                0x000000009d01314c       0xe4
 .text.SYS_FS_CurrentDriveSet
                0x000000009d01314c       0xe4 build/pic32mzef_c2_ak4954/production/_ext/344840758/sys_fs.o
                0x000000009d01314c                SYS_FS_CurrentDriveSet

.text.__pop_ptr
                0x000000009d013230       0xe4
 .text.__pop_ptr
                0x000000009d013230       0xe4 c:/program files/microchip/xc32/v4.21/bin/bin/../../lib/gcc/pic32mx/8.3.1/../../../../pic32mx/lib/fpu64\libc-musl.a(__pop_ptr.o)
                0x000000009d013230                __pop_ptr_needed
                0x000000009d013230                __pop_ptr

.text.chk_lock  0x000000009d013314       0xe0
 .text.chk_lock
                0x000000009d013314       0xe0 build/pic32mzef_c2_ak4954/production/_ext/1867241316/ff.o

.text.SYS_FS_Initialize
                0x000000009d0133f4       0xe0
 .text.SYS_FS_Initialize
                0x000000009d0133f4       0xe0 build/pic32mzef_c2_ak4954/production/_ext/344840758/sys_fs.o
                0x000000009d0133f4                SYS_FS_Initialize

.text.SYS_FS_FileStat
                0x000000009d0134d4       0xe0
 .text.SYS_FS_FileStat
                0x000000009d0134d4       0xe0 build/pic32mzef_c2_ak4954/production/_ext/344840758/sys_fs.o
                0x000000009d0134d4                SYS_FS_FileStat

.text.CLK_Initialize
                0x000000009d0135b4       0xdc
 .text.CLK_Initialize
                0x000000009d0135b4       0xdc build/pic32mzef_c2_ak4954/production/_ext/1435277349/plib_clk.o
                0x000000009d0135b4                CLK_Initialize

.text.sync_fs   0x000000009d013690       0xdc
 .text.sync_fs  0x000000009d013690       0xdc build/pic32mzef_c2_ak4954/production/_ext/1867241316/ff.o

.text.general_exception
                0x000000009d01376c       0xdc
 .text.general_exception
                0x000000009d01376c       0xdc c:/program files/microchip/xc32/v4.21/bin/bin/../../lib/gcc/pic32mx/8.3.1/../../../../pic32mx/lib/fpu64\libpic32.a(general-exception.o)
                0x000000009d01376c                _general_exception_context

.text.WAV_Initialize
                0x000000009d013848       0xd8
 .text.WAV_Initialize
                0x000000009d013848       0xd8 build/pic32mzef_c2_ak4954/production/_ext/212299867/wav_dec.o
                0x000000009d013848                WAV_Initialize

.text.DRV_AK4954_SamplingRateSet
                0x000000009d013920       0xd8
 .text.DRV_AK4954_SamplingRateSet
                0x000000009d013920       0xd8 build/pic32mzef_c2_ak4954/production/_ext/1856562345/drv_ak4954.o
                0x000000009d013920                DRV_AK4954_SamplingRateSet

.text._cache_err_exception_context
                0x000000009d0139f8       0xd8
 .text._cache_err_exception_context
                0x000000009d0139f8       0xd8 c:/program files/microchip/xc32/v4.21/bin/bin/../../lib/gcc/pic32mx/8.3.1/../../../../pic32mx/lib/fpu64\libpic32.a(cache-err-exception.o)
                0x000000009d0139f8                _cache_err_exception_context

.text.simple_tlb_refill_context
                0x000000009d013ad0       0xd8
 .text.simple_tlb_refill_context
                0x000000009d013ad0       0xd8 c:/program files/microchip/xc32/v4.21/bin/bin/../../lib/gcc/pic32mx/8.3.1/../../../../pic32mx/lib/fpu64\libpic32.a(simple-tlb-refill-exception.o)
                0x000000009d013ad0                _simple_tlb_refill_exception_context

.text._DRV_I2C_ResourceUnlock
                0x000000009d013ba8       0xd4
 .text._DRV_I2C_ResourceUnlock
                0x000000009d013ba8       0xd4 build/pic32mzef_c2_ak4954/production/_ext/1337057836/drv_i2c.o

.rodata         0x000000009d013c7c       0xd4
 .rodata        0x000000009d013c7c       0xd4 build/pic32mzef_c2_ak4954/production/_ext/1867241316/ff.o

.text.SYS_FS_MEDIA_MANAGER_SectorRead
                0x000000009d013d50       0xd4
 .text.SYS_FS_MEDIA_MANAGER_SectorRead
                0x000000009d013d50       0xd4 build/pic32mzef_c2_ak4954/production/_ext/344840758/sys_fs_media_manager.o
                0x000000009d013d50                SYS_FS_MEDIA_MANAGER_SectorRead

.text.DRV_I2C_Initialize
                0x000000009d013e24       0xcc
 .text.DRV_I2C_Initialize
                0x000000009d013e24       0xcc build/pic32mzef_c2_ak4954/production/_ext/1337057836/drv_i2c.o
                0x000000009d013e24                DRV_I2C_Initialize

.text.SYS_FS_FileClose
                0x000000009d013ef0       0xc8
 .text.SYS_FS_FileClose
                0x000000009d013ef0       0xc8 build/pic32mzef_c2_ak4954/production/_ext/344840758/sys_fs.o
                0x000000009d013ef0                SYS_FS_FileClose

.text.SYS_FS_FileRead
                0x000000009d013fb8       0xc8
 .text.SYS_FS_FileRead
                0x000000009d013fb8       0xc8 build/pic32mzef_c2_ak4954/production/_ext/344840758/sys_fs.o
                0x000000009d013fb8                SYS_FS_FileRead

.text.SYS_FS_DirClose
                0x000000009d014080       0xc8
 .text.SYS_FS_DirClose
                0x000000009d014080       0xc8 build/pic32mzef_c2_ak4954/production/_ext/344840758/sys_fs.o
                0x000000009d014080                SYS_FS_DirClose

.text.dir_alloc
                0x000000009d014148       0xc4
 .text.dir_alloc
                0x000000009d014148       0xc4 build/pic32mzef_c2_ak4954/production/_ext/1867241316/ff.o

.text.SYS_FS_DirRead
                0x000000009d01420c       0xc4
 .text.SYS_FS_DirRead
                0x000000009d01420c       0xc4 build/pic32mzef_c2_ak4954/production/_ext/344840758/sys_fs.o
                0x000000009d01420c                SYS_FS_DirRead

.text.APP_PlayerCommand
                0x000000009d0142d0       0xc4
 .text.APP_PlayerCommand
                0x000000009d0142d0       0xc4 build/pic32mzef_c2_ak4954/production/_ext/1360937237/app_sdcard_audio_task.o
                0x000000009d0142d0                APP_PlayerCommand

.text.disk_checkCommandStatus
                0x000000009d014394       0xc0
 .text.disk_checkCommandStatus
                0x000000009d014394       0xc0 build/pic32mzef_c2_ak4954/production/_ext/1892335699/diskio.o

.text.SYS_FS_FileTell
                0x000000009d014454       0xc0
 .text.SYS_FS_FileTell
                0x000000009d014454       0xc0 build/pic32mzef_c2_ak4954/production/_ext/344840758/sys_fs.o
                0x000000009d014454                SYS_FS_FileTell

.text.SYS_FS_FileSize
                0x000000009d014514       0xc0
 .text.SYS_FS_FileSize
                0x000000009d014514       0xc0 build/pic32mzef_c2_ak4954/production/_ext/344840758/sys_fs.o
                0x000000009d014514                SYS_FS_FileSize

.text.__stdio_close_rw
                0x000000009d0145d4       0xc0
 .text.__stdio_close_rw
                0x000000009d0145d4       0xc0 c:/program files/microchip/xc32/v4.21/bin/bin/../../lib/gcc/pic32mx/8.3.1/../../../../pic32mx/lib/fpu64\libc-musl.a(__stdio_close.o)
                0x000000009d0145d4                __stdio_close_rw

.text.dir_clear
                0x000000009d014694       0xbc
 .text.dir_clear
                0x000000009d014694       0xbc build/pic32mzef_c2_ak4954/production/_ext/1867241316/ff.o

.text.f_gets    0x000000009d014750       0xbc
 .text.f_gets   0x000000009d014750       0xbc build/pic32mzef_c2_ak4954/production/_ext/1867241316/ff.o
                0x000000009d014750                f_gets

.tlb.__pic32_tlb_init_ebi_sqi
                0x000000009d01480c       0xbc
 .tlb.__pic32_tlb_init_ebi_sqi
                0x000000009d01480c       0xbc c:/program files/microchip/xc32/v4.21/bin/bin/../../lib/gcc/pic32mx/8.3.1/../../../../pic32mx/lib/fpu64\libpic32.a(pic32_init_tlb_ebi_sqi.o)
                0x000000009d01480c                __pic32_tlb_init_ebi_sqi

.text.__fmt_u   0x000000009d0148c8       0xbc
 .text.__fmt_u  0x000000009d0148c8       0xbc c:/program files/microchip/xc32/v4.21/bin/bin/../../lib/gcc/pic32mx/8.3.1/../../../../pic32mx/lib/fpu64\libc-musl.a(__fmt_u.o)
                0x000000009d0148c8                __fmt_u
                0x000000009d0148c8                __fmt_u_needed

.text._getAK4954_samplerate
                0x000000009d014984       0xb8
 .text._getAK4954_samplerate
                0x000000009d014984       0xb8 build/pic32mzef_c2_ak4954/production/_ext/1856562345/drv_ak4954.o
                0x000000009d014984                _getAK4954_samplerate

.text._DRV_I2S_BufferObjectGet
                0x000000009d014a3c       0xb8
 .text._DRV_I2S_BufferObjectGet
                0x000000009d014a3c       0xb8 build/pic32mzef_c2_ak4954/production/_ext/450163651/drv_i2s.o

.text.SPI1_TransferSetup
                0x000000009d014af4       0xb8
 .text.SPI1_TransferSetup
                0x000000009d014af4       0xb8 build/pic32mzef_c2_ak4954/production/_ext/603446335/plib_spi1_master.o
                0x000000009d014af4                SPI1_TransferSetup

.text.dir_remove
                0x000000009d014bac       0xb8
 .text.dir_remove
                0x000000009d014bac       0xb8 build/pic32mzef_c2_ak4954/production/_ext/1867241316/ff.o

.text.FATFS_mount
                0x000000009d014c64       0xb8
 .text.FATFS_mount
                0x000000009d014c64       0xb8 build/pic32mzef_c2_ak4954/production/_ext/344840758/sys_fs_fat_interface.o
                0x000000009d014c64                FATFS_mount

.text.DRV_SDSPI_CommandStatusGet
                0x000000009d014d1c       0xb4
 .text.DRV_SDSPI_CommandStatusGet
                0x000000009d014d1c       0xb4 build/pic32mzef_c2_ak4954/production/_ext/1500991179/drv_sdspi.o
                0x000000009d014d1c                DRV_SDSPI_CommandStatusGet

.text.f_mount   0x000000009d014dd0       0xb4
 .text.f_mount  0x000000009d014dd0       0xb4 build/pic32mzef_c2_ak4954/production/_ext/1867241316/ff.o
                0x000000009d014dd0                f_mount

.text.f_chdir   0x000000009d014e84       0xb0
 .text.f_chdir  0x000000009d014e84       0xb0 build/pic32mzef_c2_ak4954/production/_ext/1867241316/ff.o
                0x000000009d014e84                f_chdir

.text.SYS_FS_FileEOF
                0x000000009d014f34       0xb0
 .text.SYS_FS_FileEOF
                0x000000009d014f34       0xb0 build/pic32mzef_c2_ak4954/production/_ext/344840758/sys_fs.o
                0x000000009d014f34                SYS_FS_FileEOF

.text.DRV_AK4954_Close
                0x000000009d014fe4       0xac
 .text.DRV_AK4954_Close
                0x000000009d014fe4       0xac build/pic32mzef_c2_ak4954/production/_ext/1856562345/drv_ak4954.o
                0x000000009d014fe4                DRV_AK4954_Close

.text.SYS_FS_MEDIA_MANAGER_MediaStatusGet
                0x000000009d015090       0xac
 .text.SYS_FS_MEDIA_MANAGER_MediaStatusGet
                0x000000009d015090       0xac build/pic32mzef_c2_ak4954/production/_ext/344840758/sys_fs_media_manager.o
                0x000000009d015090                SYS_FS_MEDIA_MANAGER_MediaStatusGet

.text.SYS_TIME_TimerStart
                0x000000009d01513c       0xac
 .text.SYS_TIME_TimerStart
                0x000000009d01513c       0xac build/pic32mzef_c2_ak4954/production/_ext/784026422/sys_time.o
                0x000000009d01513c                SYS_TIME_TimerStart

.text.APP_SDCARD_AUDIO_Player_GetCurrentFileType
                0x000000009d0151e8       0xac
 .text.APP_SDCARD_AUDIO_Player_GetCurrentFileType
                0x000000009d0151e8       0xac build/pic32mzef_c2_ak4954/production/_ext/1360937237/app_sdcard_audio_task.o
                0x000000009d0151e8                APP_SDCARD_AUDIO_Player_GetCurrentFileType

.text.DRV_AK4954_BufferEventHandlerSet
                0x000000009d015294       0xa8
 .text.DRV_AK4954_BufferEventHandlerSet
                0x000000009d015294       0xa8 build/pic32mzef_c2_ak4954/production/_ext/1856562345/drv_ak4954.o
                0x000000009d015294                DRV_AK4954_BufferEventHandlerSet

.text           0x000000009d01533c       0xa8
 .text          0x000000009d01533c       0xa8 c:/program files/microchip/xc32/v4.21/bin/bin/../../lib/gcc/pic32mx/8.3.1/../../../../pic32mx/lib/fpu64\libpic32.a(memset.o)
                0x000000009d01533c                memset

.text._DRV_SDSPI_DriverHandleValidate
                0x000000009d0153e4       0xa4
 .text._DRV_SDSPI_DriverHandleValidate
                0x000000009d0153e4       0xa4 build/pic32mzef_c2_ak4954/production/_ext/1500991179/drv_sdspi.o

.text.sync_window
                0x000000009d015488       0xa4
 .text.sync_window
                0x000000009d015488       0xa4 build/pic32mzef_c2_ak4954/production/_ext/1867241316/ff.o

.text.SYS_TIME_CallbackRegisterMS
                0x000000009d01552c       0xa4
 .text.SYS_TIME_CallbackRegisterMS
                0x000000009d01552c       0xa4 build/pic32mzef_c2_ak4954/production/_ext/784026422/sys_time.o
                0x000000009d01552c                SYS_TIME_CallbackRegisterMS

.text.__fmt_s   0x000000009d0155d0       0xa4
 .text.__fmt_s  0x000000009d0155d0       0xa4 c:/program files/microchip/xc32/v4.21/bin/bin/../../lib/gcc/pic32mx/8.3.1/../../../../pic32mx/lib/fpu64\libc-musl.a(__fmt_s.o)
                0x000000009d0155d0                __fmt_0_needed
                0x000000009d0155d0                __fmt_s
                0x000000009d0155d0                __fmt_s_needed

.text.DRV_I2S_RefClockSet
                0x000000009d015674       0xa0
 .text.DRV_I2S_RefClockSet
                0x000000009d015674       0xa0 build/pic32mzef_c2_ak4954/production/_ext/450163651/drv_i2s.o
                0x000000009d015674                DRV_I2S_RefClockSet

.text.f_chmod   0x000000009d015714       0xa0
 .text.f_chmod  0x000000009d015714       0xa0 build/pic32mzef_c2_ak4954/production/_ext/1867241316/ff.o
                0x000000009d015714                f_chmod

.text.FATFS_opendir
                0x000000009d0157b4       0x9c
 .text.FATFS_opendir
                0x000000009d0157b4       0x9c build/pic32mzef_c2_ak4954/production/_ext/344840758/sys_fs_fat_interface.o
                0x000000009d0157b4                FATFS_opendir

.text.APP_SDCARD_AUDIO_Card_OpenTrack
                0x000000009d015850       0x9c
 .text.APP_SDCARD_AUDIO_Card_OpenTrack
                0x000000009d015850       0x9c build/pic32mzef_c2_ak4954/production/_ext/1360937237/app_sdcard_audio_task.o
                0x000000009d015850                APP_SDCARD_AUDIO_Card_OpenTrack

.text.DMAC_Initialize
                0x000000009d0158ec       0x98
 .text.DMAC_Initialize
                0x000000009d0158ec       0x98 build/pic32mzef_c2_ak4954/production/_ext/1543894318/plib_dmac.o
                0x000000009d0158ec                DMAC_Initialize

.text.validate  0x000000009d015984       0x98
 .text.validate
                0x000000009d015984       0x98 build/pic32mzef_c2_ak4954/production/_ext/1867241316/ff.o

.text._SYS_FS_MEDIA_MANAGER_HandleMediaDetach
                0x000000009d015a1c       0x98
 .text._SYS_FS_MEDIA_MANAGER_HandleMediaDetach
                0x000000009d015a1c       0x98 build/pic32mzef_c2_ak4954/production/_ext/344840758/sys_fs_media_manager.o

.text           0x000000009d015ab4       0x98
 .text          0x000000009d015ab4       0x98 c:/program files/microchip/xc32/v4.21/bin/bin/../../lib/gcc/pic32mx/8.3.1/../../../../pic32mx/lib/fpu64\libpic32.a(memcmp.o)
                0x000000009d015ab4                memcmp

.text.f_utime   0x000000009d015b4c       0x94
 .text.f_utime  0x000000009d015b4c       0x94 build/pic32mzef_c2_ak4954/production/_ext/1867241316/ff.o
                0x000000009d015b4c                f_utime

.text.SYS_TIME_RemoveFromList
                0x000000009d015be0       0x94
 .text.SYS_TIME_RemoveFromList
                0x000000009d015be0       0x94 build/pic32mzef_c2_ak4954/production/_ext/784026422/sys_time.o

.text.DRV_I2S_BaudRateSet
                0x000000009d015c74       0x90
 .text.DRV_I2S_BaudRateSet
                0x000000009d015c74       0x90 build/pic32mzef_c2_ak4954/production/_ext/450163651/drv_i2s.o
                0x000000009d015c74                DRV_I2S_BaudRateSet

.text.I2S2_BaudRateSet
                0x000000009d015d04       0x8c
 .text.I2S2_BaudRateSet
                0x000000009d015d04       0x8c build/pic32mzef_c2_ak4954/production/_ext/563155524/plib_i2s2.o
                0x000000009d015d04                I2S2_BaudRateSet

.text._DRV_SDSPI_SPIWrite
                0x000000009d015d90       0x8c
 .text._DRV_SDSPI_SPIWrite
                0x000000009d015d90       0x8c build/pic32mzef_c2_ak4954/production/_ext/1500991179/drv_sdspi_plib_interface.o
                0x000000009d015d90                _DRV_SDSPI_SPIWrite

.text._DRV_SDSPI_SPIRead
                0x000000009d015e1c       0x8c
 .text._DRV_SDSPI_SPIRead
                0x000000009d015e1c       0x8c build/pic32mzef_c2_ak4954/production/_ext/1500991179/drv_sdspi_plib_interface.o
                0x000000009d015e1c                _DRV_SDSPI_SPIRead

.text.I2C1_WriteRead
                0x000000009d015ea8       0x8c
 .text.I2C1_WriteRead
                0x000000009d015ea8       0x8c build/pic32mzef_c2_ak4954/production/_ext/232538270/plib_i2c1_master.o
                0x000000009d015ea8                I2C1_WriteRead

.text.dec_lock  0x000000009d015f34       0x8c
 .text.dec_lock
                0x000000009d015f34       0x8c build/pic32mzef_c2_ak4954/production/_ext/1867241316/ff.o

.text.putc_bfd  0x000000009d015fc0       0x8c
 .text.putc_bfd
                0x000000009d015fc0       0x8c build/pic32mzef_c2_ak4954/production/_ext/1867241316/ff.o

.text.f_readdir
                0x000000009d01604c       0x8c
 .text.f_readdir
                0x000000009d01604c       0x8c build/pic32mzef_c2_ak4954/production/_ext/1867241316/ff.o
                0x000000009d01604c                f_readdir

.text.__out     0x000000009d0160d8       0x8c
 .text.__out    0x000000009d0160d8       0x8c c:/program files/microchip/xc32/v4.21/bin/bin/../../lib/gcc/pic32mx/8.3.1/../../../../pic32mx/lib/fpu64\libc-musl.a(__out.o)
                0x000000009d0160d8                __out_needed
                0x000000009d0160d8                __out

.text._DRV_AK4954_CommandQueueGetSlot
                0x000000009d016164       0x88
 .text._DRV_AK4954_CommandQueueGetSlot
                0x000000009d016164       0x88 build/pic32mzef_c2_ak4954/production/_ext/1856562345/drv_ak4954.o

.text.I2C1_Read
                0x000000009d0161ec       0x88
 .text.I2C1_Read
                0x000000009d0161ec       0x88 build/pic32mzef_c2_ak4954/production/_ext/232538270/plib_i2c1_master.o
                0x000000009d0161ec                I2C1_Read

.text.I2C1_Write
                0x000000009d016274       0x88
 .text.I2C1_Write
                0x000000009d016274       0x88 build/pic32mzef_c2_ak4954/production/_ext/232538270/plib_i2c1_master.o
                0x000000009d016274                I2C1_Write

.text.I2C1_WriteForced
                0x000000009d0162fc       0x88
 .text.I2C1_WriteForced
                0x000000009d0162fc       0x88 build/pic32mzef_c2_ak4954/production/_ext/232538270/plib_i2c1_master.o
                0x000000009d0162fc                I2C1_WriteForced

.text.SPI1_Initialize
                0x000000009d016384       0x88
 .text.SPI1_Initialize
                0x000000009d016384       0x88 build/pic32mzef_c2_ak4954/production/_ext/603446335/plib_spi1_master.o
                0x000000009d016384                SPI1_Initialize

.text.SYS_TIME_TimerAdd
                0x000000009d01640c       0x88
 .text.SYS_TIME_TimerAdd
                0x000000009d01640c       0x88 build/pic32mzef_c2_ak4954/production/_ext/784026422/sys_time.o

.text.write     0x000000009d016494       0x88
 .text.write    0x000000009d016494       0x88 c:/program files/microchip/xc32/v4.21/bin/bin/../../lib/gcc/pic32mx/8.3.1/../../../../pic32mx/lib/fpu64\libpic32.a(write.o)
                0x000000009d016494                write

.text._DRV_AK4954_I2SBufferEventHandler
                0x000000009d01651c       0x84
 .text._DRV_AK4954_I2SBufferEventHandler
                0x000000009d01651c       0x84 build/pic32mzef_c2_ak4954/production/_ext/1856562345/drv_ak4954.o

.text.DRV_AK4954_MuteOff
                0x000000009d0165a0       0x84
 .text.DRV_AK4954_MuteOff
                0x000000009d0165a0       0x84 build/pic32mzef_c2_ak4954/production/_ext/1856562345/drv_ak4954.o
                0x000000009d0165a0                DRV_AK4954_MuteOff

.text.DRV_I2C_TransferEventHandlerSet
                0x000000009d016624       0x84
 .text.DRV_I2C_TransferEventHandlerSet
                0x000000009d016624       0x84 build/pic32mzef_c2_ak4954/production/_ext/1337057836/drv_i2c.o
                0x000000009d016624                DRV_I2C_TransferEventHandlerSet

.text._DRV_SDSPI_SPISpeedSetup
                0x000000009d0166a8       0x84
 .text._DRV_SDSPI_SPISpeedSetup
                0x000000009d0166a8       0x84 build/pic32mzef_c2_ak4954/production/_ext/1500991179/drv_sdspi_plib_interface.o
                0x000000009d0166a8                _DRV_SDSPI_SPISpeedSetup

.text.SYS_FS_FileNameGet
                0x000000009d01672c       0x84
 .text.SYS_FS_FileNameGet
                0x000000009d01672c       0x84 build/pic32mzef_c2_ak4954/production/_ext/344840758/sys_fs.o
                0x000000009d01672c                SYS_FS_FileNameGet

.text.get_ldnumber
                0x000000009d0167b0       0x80
 .text.get_ldnumber
                0x000000009d0167b0       0x80 build/pic32mzef_c2_ak4954/production/_ext/1867241316/ff.o

.text.disk_ioctl
                0x000000009d016830       0x80
 .text.disk_ioctl
                0x000000009d016830       0x80 build/pic32mzef_c2_ak4954/production/_ext/1892335699/diskio.o
                0x000000009d016830                disk_ioctl

.text.SYS_TIME_GetTimerObject
                0x000000009d0168b0       0x80
 .text.SYS_TIME_GetTimerObject
                0x000000009d0168b0       0x80 build/pic32mzef_c2_ak4954/production/_ext/784026422/sys_time.o

.text.dinit.startup
                0x000000009d016930       0x80
 .text.dinit.startup
                0x000000009d016930       0x80 c:/program files/microchip/xc32/v4.21/bin/bin/../../lib/gcc/pic32mx/8.3.1/../../../../pic32mx/lib/fpu64\libpic32.a(pic32_data_init_0_1.o)
                0x000000009d016930                __pic32_data_init_impl
                0x000000009d016930                __copy_needed

.text.DRV_AK4954_BufferAddWrite
                0x000000009d0169b0       0x7c
 .text.DRV_AK4954_BufferAddWrite
                0x000000009d0169b0       0x7c build/pic32mzef_c2_ak4954/production/_ext/1856562345/drv_ak4954.o
                0x000000009d0169b0                DRV_AK4954_BufferAddWrite

.text._calcRefclock
                0x000000009d016a2c       0x7c
 .text._calcRefclock
                0x000000009d016a2c       0x7c build/pic32mzef_c2_ak4954/production/_ext/563155524/plib_i2s2.o

.text.I2S2_Initialize
                0x000000009d016aa8       0x7c
 .text.I2S2_Initialize
                0x000000009d016aa8       0x7c build/pic32mzef_c2_ak4954/production/_ext/563155524/plib_i2s2.o
                0x000000009d016aa8                I2S2_Initialize

.text.FATFS_getclusters
                0x000000009d016b24       0x7c
 .text.FATFS_getclusters
                0x000000009d016b24       0x7c build/pic32mzef_c2_ak4954/production/_ext/344840758/sys_fs_fat_interface.o
                0x000000009d016b24                FATFS_getclusters

.text.APP_SDCARD_AUDIO_Player_Initialize
                0x000000009d016ba0       0x7c
 .text.APP_SDCARD_AUDIO_Player_Initialize
                0x000000009d016ba0       0x7c build/pic32mzef_c2_ak4954/production/_ext/1360937237/app_sdcard_audio_task.o
                0x000000009d016ba0                APP_SDCARD_AUDIO_Player_Initialize

.text.DECODER_Initialize
                0x000000009d016c1c       0x7c
 .text.DECODER_Initialize
                0x000000009d016c1c       0x7c build/pic32mzef_c2_ak4954/production/_ext/1360937237/decoder.o
                0x000000009d016c1c                DECODER_Initialize

.text.atoi      0x000000009d016c98       0x7c
 .text.atoi     0x000000009d016c98       0x7c c:/program files/microchip/xc32/v4.21/bin/bin/../../lib/gcc/pic32mx/8.3.1/../../../../pic32mx/lib/fpu64\libc-musl.a(atoi.o)
                0x000000009d016c98                atoi

.text.DRV_I2S_Close
                0x000000009d016d14       0x78
 .text.DRV_I2S_Close
                0x000000009d016d14       0x78 build/pic32mzef_c2_ak4954/production/_ext/450163651/drv_i2s.o
                0x000000009d016d14                DRV_I2S_Close

.text.DRV_I2S_BufferEventHandlerSet
                0x000000009d016d8c       0x78
 .text.DRV_I2S_BufferEventHandlerSet
                0x000000009d016d8c       0x78 build/pic32mzef_c2_ak4954/production/_ext/450163651/drv_i2s.o
                0x000000009d016d8c                DRV_I2S_BufferEventHandlerSet

.text.f_stat    0x000000009d016e04       0x78
 .text.f_stat   0x000000009d016e04       0x78 build/pic32mzef_c2_ak4954/production/_ext/1867241316/ff.o
                0x000000009d016e04                f_stat

.text.SYS_TIME_TimerDestroy
                0x000000009d016e7c       0x78
 .text.SYS_TIME_TimerDestroy
                0x000000009d016e7c       0x78 build/pic32mzef_c2_ak4954/production/_ext/784026422/sys_time.o
                0x000000009d016e7c                SYS_TIME_TimerDestroy

.text.APP_SDCARD_AUDIO_Player_Reset
                0x000000009d016ef4       0x78
 .text.APP_SDCARD_AUDIO_Player_Reset
                0x000000009d016ef4       0x78 build/pic32mzef_c2_ak4954/production/_ext/1360937237/app_sdcard_audio_task.o
                0x000000009d016ef4                APP_SDCARD_AUDIO_Player_Reset

.text.UART6_Write
                0x000000009d016f6c       0x74
 .text.UART6_Write
                0x000000009d016f6c       0x74 build/pic32mzef_c2_ak4954/production/_ext/1543398859/plib_uart6.o
                0x000000009d016f6c                UART6_Write

.text.f_fdisk   0x000000009d016fe0       0x74
 .text.f_fdisk  0x000000009d016fe0       0x74 build/pic32mzef_c2_ak4954/production/_ext/1867241316/ff.o
                0x000000009d016fe0                f_fdisk

.text.disk_read_aligned
                0x000000009d017054       0x74
 .text.disk_read_aligned
                0x000000009d017054       0x74 build/pic32mzef_c2_ak4954/production/_ext/1892335699/diskio.o

.text.SYS_FS_MEDIA_MANAGER_IsFSFat
                0x000000009d0170c8       0x74
 .text.SYS_FS_MEDIA_MANAGER_IsFSFat
                0x000000009d0170c8       0x74 build/pic32mzef_c2_ak4954/production/_ext/344840758/sys_fs_media_manager.o

.text.DRV_I2S_Open
                0x000000009d000110       0x70
 .text.DRV_I2S_Open
                0x000000009d000110       0x70 build/pic32mzef_c2_ak4954/production/_ext/450163651/drv_i2s.o
                0x000000009d000110                DRV_I2S_Open

.text.move_window
                0x000000009d000190       0x70
 .text.move_window
                0x000000009d000190       0x70 build/pic32mzef_c2_ak4954/production/_ext/1867241316/ff.o

.text.ff_uni2oem
                0x000000009d01713c       0x70
 .text.ff_uni2oem
                0x000000009d01713c       0x70 build/pic32mzef_c2_ak4954/production/_ext/1867241316/ffunicode.o
                0x000000009d01713c                ff_uni2oem

.text.SYS_TIME_UpdateTimerList
                0x000000009d0171ac       0x70
 .text.SYS_TIME_UpdateTimerList
                0x000000009d0171ac       0x70 build/pic32mzef_c2_ak4954/production/_ext/784026422/sys_time.o

.text.APP_SDCARD_AUDIO_Card_NextTrack
                0x000000009d01721c       0x6c
 .text.APP_SDCARD_AUDIO_Card_NextTrack
                0x000000009d01721c       0x6c build/pic32mzef_c2_ak4954/production/_ext/1360937237/app_sdcard_audio_task.o
                0x000000009d01721c                APP_SDCARD_AUDIO_Card_NextTrack

.text.APP_Initialize
                0x000000009d017288       0x6c
 .text.APP_Initialize
                0x000000009d017288       0x6c build/pic32mzef_c2_ak4954/production/_ext/1360937237/app.o
                0x000000009d017288                APP_Initialize

.text._DRV_I2C_DriverHandleValidate
                0x000000009d0172f4       0x68
 .text._DRV_I2C_DriverHandleValidate
                0x000000009d0172f4       0x68 build/pic32mzef_c2_ak4954/production/_ext/1337057836/drv_i2c.o

.text._DRV_SDSPI_SPIWriteWithChipSelectDisabled
                0x000000009d01735c       0x68
 .text._DRV_SDSPI_SPIWriteWithChipSelectDisabled
                0x000000009d01735c       0x68 build/pic32mzef_c2_ak4954/production/_ext/1500991179/drv_sdspi_plib_interface.o
                0x000000009d01735c                _DRV_SDSPI_SPIWriteWithChipSelectDisabled

.text.f_puts    0x000000009d0173c4       0x68
 .text.f_puts   0x000000009d0173c4       0x68 build/pic32mzef_c2_ak4954/production/_ext/1867241316/ff.o
                0x000000009d0173c4                f_puts

.text.SYS_FS_MEDIA_MANAGER_VolumePropertyGet
                0x000000009d01742c       0x68
 .text.SYS_FS_MEDIA_MANAGER_VolumePropertyGet
                0x000000009d01742c       0x68 build/pic32mzef_c2_ak4954/production/_ext/344840758/sys_fs_media_manager.o
                0x000000009d01742c                SYS_FS_MEDIA_MANAGER_VolumePropertyGet

.text.APP_SDCARD_AUDIO_Player_Decode
                0x000000009d017494       0x68
 .text.APP_SDCARD_AUDIO_Player_Decode
                0x000000009d017494       0x68 build/pic32mzef_c2_ak4954/production/_ext/1360937237/app_sdcard_audio_task.o
                0x000000009d017494                APP_SDCARD_AUDIO_Player_Decode

.text.memmove   0x000000009d0174fc       0x68
 .text.memmove  0x000000009d0174fc       0x68 c:/program files/microchip/xc32/v4.21/bin/bin/../../lib/gcc/pic32mx/8.3.1/../../../../pic32mx/lib/fpu64\libc-musl.a(memmove.o)
                0x000000009d0174fc                memmove

.text._DRV_I2S_ResourceLock
                0x000000009d017564       0x64
 .text._DRV_I2S_ResourceLock
                0x000000009d017564       0x64 build/pic32mzef_c2_ak4954/production/_ext/450163651/drv_i2s.o

.text.CORETIMER_Start
                0x000000009d0175c8       0x64
 .text.CORETIMER_Start
                0x000000009d0175c8       0x64 build/pic32mzef_c2_ak4954/production/_ext/131824383/plib_coretimer.o
                0x000000009d0175c8                CORETIMER_Start

.text.EVIC_Initialize
                0x000000009d01762c       0x64
 .text.EVIC_Initialize
                0x000000009d01762c       0x64 build/pic32mzef_c2_ak4954/production/_ext/1543855630/plib_evic.o
                0x000000009d01762c                EVIC_Initialize

.text.I2C1_Initialize
                0x000000009d017690       0x64
 .text.I2C1_Initialize
                0x000000009d017690       0x64 build/pic32mzef_c2_ak4954/production/_ext/232538270/plib_i2c1_master.o
                0x000000009d017690                I2C1_Initialize

.text._DRV_I2S_WriteBufferQueuePurge
                0x000000009d0176f4       0x60
 .text._DRV_I2S_WriteBufferQueuePurge
                0x000000009d0176f4       0x60 build/pic32mzef_c2_ak4954/production/_ext/450163651/drv_i2s.o

.rodata.str1.4  0x000000009d017754       0x60
 .rodata.str1.4
                0x000000009d017754       0x60 build/pic32mzef_c2_ak4954/production/_ext/563155524/plib_i2s2.o

.text.I2C1_BUS_InterruptHandler
                0x000000009d0177b4       0x60
 .text.I2C1_BUS_InterruptHandler
                0x000000009d0177b4       0x60 build/pic32mzef_c2_ak4954/production/_ext/232538270/plib_i2c1_master.o
                0x000000009d0177b4                I2C1_BUS_InterruptHandler

.text.putc_flush
                0x000000009d017814       0x60
 .text.putc_flush
                0x000000009d017814       0x60 build/pic32mzef_c2_ak4954/production/_ext/1867241316/ff.o

.text.SYS_FS_MEDIA_MANAGER_EventHandler
                0x000000009d017874       0x60
 .text.SYS_FS_MEDIA_MANAGER_EventHandler
                0x000000009d017874       0x60 build/pic32mzef_c2_ak4954/production/_ext/344840758/sys_fs_media_manager.o
                0x000000009d017874                SYS_FS_MEDIA_MANAGER_EventHandler

.text.APP_SDCARD_AUDIO_Initialize
                0x000000009d0178d4       0x60
 .text.APP_SDCARD_AUDIO_Initialize
                0x000000009d0178d4       0x60 build/pic32mzef_c2_ak4954/production/_ext/1360937237/app_sdcard_audio_task.o
                0x000000009d0178d4                APP_SDCARD_AUDIO_Initialize

.text.APP_SDCARD_AUDIO_ClearBufferFlags
                0x000000009d017934       0x60
 .text.APP_SDCARD_AUDIO_ClearBufferFlags
                0x000000009d017934       0x60 build/pic32mzef_c2_ak4954/production/_ext/1360937237/app_sdcard_audio_task.o
                0x000000009d017934                APP_SDCARD_AUDIO_ClearBufferFlags

.text._DRV_I2S_TX_DMA_CallbackHandler
                0x000000009d017994       0x5c
 .text._DRV_I2S_TX_DMA_CallbackHandler
                0x000000009d017994       0x5c build/pic32mzef_c2_ak4954/production/_ext/450163651/drv_i2s.o

.text._DRV_I2S_ResourceUnlock
                0x000000009d0179f0       0x5c
 .text._DRV_I2S_ResourceUnlock
                0x000000009d0179f0       0x5c build/pic32mzef_c2_ak4954/production/_ext/450163651/drv_i2s.o

.text._DRV_I2S_ReadBufferQueuePurge
                0x000000009d017a4c       0x5c
 .text._DRV_I2S_ReadBufferQueuePurge
                0x000000009d017a4c       0x5c build/pic32mzef_c2_ak4954/production/_ext/450163651/drv_i2s.o

.text.f_closedir
                0x000000009d017aa8       0x5c
 .text.f_closedir
                0x000000009d017aa8       0x5c build/pic32mzef_c2_ak4954/production/_ext/1867241316/ff.o
                0x000000009d017aa8                f_closedir

.text.SYS_FS_MEDIA_MANAGER_Register
                0x000000009d017b04       0x5c
 .text.SYS_FS_MEDIA_MANAGER_Register
                0x000000009d017b04       0x5c build/pic32mzef_c2_ak4954/production/_ext/344840758/sys_fs_media_manager.o
                0x000000009d017b04                SYS_FS_MEDIA_MANAGER_Register

.text.APP_SDCARD_AUDIO_Card_ReadCurrentFile
                0x000000009d017b60       0x5c
 .text.APP_SDCARD_AUDIO_Card_ReadCurrentFile
                0x000000009d017b60       0x5c build/pic32mzef_c2_ak4954/production/_ext/1360937237/app_sdcard_audio_task.o
                0x000000009d017b60                APP_SDCARD_AUDIO_Card_ReadCurrentFile

.text.AK4954_I2CEventHandler
                0x000000009d017bbc       0x58
 .text.AK4954_I2CEventHandler
                0x000000009d017bbc       0x58 build/pic32mzef_c2_ak4954/production/_ext/1856562345/drv_ak4954.o

.text.DRV_SDSPI_IsAttached
                0x000000009d017c14       0x58
 .text.DRV_SDSPI_IsAttached
                0x000000009d017c14       0x58 build/pic32mzef_c2_ak4954/production/_ext/1500991179/drv_sdspi.o
                0x000000009d017c14                DRV_SDSPI_IsAttached

.text.tchar2uni
                0x000000009d017c6c       0x58
 .text.tchar2uni
                0x000000009d017c6c       0x58 build/pic32mzef_c2_ak4954/production/_ext/1867241316/ff.o

.text.diskEventHandler
                0x000000009d017cc4       0x58
 .text.diskEventHandler
                0x000000009d017cc4       0x58 build/pic32mzef_c2_ak4954/production/_ext/1892335699/diskio.o
                0x000000009d017cc4                diskEventHandler

.text.SYS_INT_SourceDisable
                0x000000009d017d1c       0x58
 .text.SYS_INT_SourceDisable
                0x000000009d017d1c       0x58 build/pic32mzef_c2_ak4954/production/_ext/386225584/sys_int.o
                0x000000009d017d1c                SYS_INT_SourceDisable

.text.SYS_TIME_ResourceLock
                0x000000009d017d74       0x58
 .text.SYS_TIME_ResourceLock
                0x000000009d017d74       0x58 build/pic32mzef_c2_ak4954/production/_ext/784026422/sys_time.o

.text.__fmt_state
                0x000000009d017dcc       0x58
 .text.__fmt_state
                0x000000009d017dcc       0x58 c:/program files/microchip/xc32/v4.21/bin/bin/../../lib/gcc/pic32mx/8.3.1/../../../../pic32mx/lib/fpu64\libc-musl.a(__printf_core.o)
                0x000000009d017dcc                __fmt_state

.rodata.str1.4  0x000000009d017e24       0x54
 .rodata.str1.4
                0x000000009d017e24       0x54 build/pic32mzef_c2_ak4954/production/_ext/1867241316/ff.o

.text.f_putc    0x000000009d017e78       0x54
 .text.f_putc   0x000000009d017e78       0x54 build/pic32mzef_c2_ak4954/production/_ext/1867241316/ff.o
                0x000000009d017e78                f_putc

.text.ff_oem2uni
                0x000000009d017ecc       0x54
 .text.ff_oem2uni
                0x000000009d017ecc       0x54 build/pic32mzef_c2_ak4954/production/_ext/1867241316/ffunicode.o
                0x000000009d017ecc                ff_oem2uni

.text.APP_SDCARD_AUDIO_Card_PreviousTrack
                0x000000009d017f20       0x54
 .text.APP_SDCARD_AUDIO_Card_PreviousTrack
                0x000000009d017f20       0x54 build/pic32mzef_c2_ak4954/production/_ext/1360937237/app_sdcard_audio_task.o
                0x000000009d017f20                APP_SDCARD_AUDIO_Card_PreviousTrack

.text.main_entry
                0x000000009d017f74       0x54
 .text.main_entry
                0x000000009d017f74       0x54 C:\Users\spreg\AppData\Local\Temp\ccUeMUPf.o
                0x000000009d017fa8                __crt0_exit

.text._DRV_I2S_RX_DMA_CallbackHandler
                0x000000009d017fc8       0x50
 .text._DRV_I2S_RX_DMA_CallbackHandler
                0x000000009d017fc8       0x50 build/pic32mzef_c2_ak4954/production/_ext/450163651/drv_i2s.o

.text.WAV_Decoder
                0x000000009d018018       0x4c
 .text.WAV_Decoder
                0x000000009d018018       0x4c build/pic32mzef_c2_ak4954/production/_ext/212299867/wav_dec.o
                0x000000009d018018                WAV_Decoder

.text.f_close   0x000000009d018064       0x4c
 .text.f_close  0x000000009d018064       0x4c build/pic32mzef_c2_ak4954/production/_ext/1867241316/ff.o
                0x000000009d018064                f_close

.text.SYS_FS_MEDIA_MANAGER_TransferTask
                0x000000009d0180b0       0x4c
 .text.SYS_FS_MEDIA_MANAGER_TransferTask
                0x000000009d0180b0       0x4c build/pic32mzef_c2_ak4954/production/_ext/344840758/sys_fs_media_manager.o
                0x000000009d0180b0                SYS_FS_MEDIA_MANAGER_TransferTask

.text.FATFS_readdir
                0x000000009d0180fc       0x4c
 .text.FATFS_readdir
                0x000000009d0180fc       0x4c build/pic32mzef_c2_ak4954/production/_ext/344840758/sys_fs_fat_interface.o
                0x000000009d0180fc                FATFS_readdir

.text.APP_SysFSEventHandler
                0x000000009d018148       0x4c
 .text.APP_SysFSEventHandler
                0x000000009d018148       0x4c build/pic32mzef_c2_ak4954/production/_ext/1360937237/app_sdcard_audio_task.o

.text.APP_SDCARD_AUDIO_Card_OpenFile
                0x000000009d018194       0x4c
 .text.APP_SDCARD_AUDIO_Card_OpenFile
                0x000000009d018194       0x4c build/pic32mzef_c2_ak4954/production/_ext/1360937237/app_sdcard_audio_task.o
                0x000000009d018194                APP_SDCARD_AUDIO_Card_OpenFile

.text.DRV_SDSPI_GeometryGet
                0x000000009d0181e0       0x48
 .text.DRV_SDSPI_GeometryGet
                0x000000009d0181e0       0x48 build/pic32mzef_c2_ak4954/production/_ext/1500991179/drv_sdspi.o
                0x000000009d0181e0                DRV_SDSPI_GeometryGet

.text._DRV_SDSPI_CardDetectPollingTimerStart
                0x000000009d018228       0x48
 .text._DRV_SDSPI_CardDetectPollingTimerStart
                0x000000009d018228       0x48 build/pic32mzef_c2_ak4954/production/_ext/1500991179/drv_sdspi_plib_interface.o
                0x000000009d018228                _DRV_SDSPI_CardDetectPollingTimerStart

.text._DRV_SDSPI_CmdResponseTimerStart
                0x000000009d018270       0x48
 .text._DRV_SDSPI_CmdResponseTimerStart
                0x000000009d018270       0x48 build/pic32mzef_c2_ak4954/production/_ext/1500991179/drv_sdspi_plib_interface.o
                0x000000009d018270                _DRV_SDSPI_CmdResponseTimerStart

.text._DRV_SDSPI_TimerStart
                0x000000009d0182b8       0x48
 .text._DRV_SDSPI_TimerStart
                0x000000009d0182b8       0x48 build/pic32mzef_c2_ak4954/production/_ext/1500991179/drv_sdspi_plib_interface.o
                0x000000009d0182b8                _DRV_SDSPI_TimerStart

.text.FATFS_stat
                0x000000009d018300       0x48
 .text.FATFS_stat
                0x000000009d018300       0x48 build/pic32mzef_c2_ak4954/production/_ext/344840758/sys_fs_fat_interface.o
                0x000000009d018300                FATFS_stat

.text.APP_SDCARD_AUDIO_Card_Initialize
                0x000000009d018348       0x48
 .text.APP_SDCARD_AUDIO_Card_Initialize
                0x000000009d018348       0x48 build/pic32mzef_c2_ak4954/production/_ext/1360937237/app_sdcard_audio_task.o
                0x000000009d018348                APP_SDCARD_AUDIO_Card_Initialize

.text.strncmp   0x000000009d018390       0x48
 .text.strncmp  0x000000009d018390       0x48 c:/program files/microchip/xc32/v4.21/bin/bin/../../lib/gcc/pic32mx/8.3.1/../../../../pic32mx/lib/fpu64\libc-musl.a(strncmp.o)
                0x000000009d018390                strncmp

.text.__pop_float
                0x000000009d0183d8       0x48
 .text.__pop_float
                0x000000009d0183d8       0x48 c:/program files/microchip/xc32/v4.21/bin/bin/../../lib/gcc/pic32mx/8.3.1/../../../../pic32mx/lib/fpu64\libc-musl.a(__pop_float.o)
                0x000000009d0183d8                __pop_float
                0x000000009d0183d8                __pop_float_needed

.text.SYS_CACHE_InvalidateDCache_by_Addr
                0x000000009d018420       0x44
 .text.SYS_CACHE_InvalidateDCache_by_Addr
                0x000000009d018420       0x44 build/pic32mzef_c2_ak4954/production/_ext/839150702/sys_cache.o
                0x000000009d018420                SYS_CACHE_InvalidateDCache_by_Addr

.text.SYS_CACHE_CleanDCache_by_Addr
                0x000000009d018464       0x44
 .text.SYS_CACHE_CleanDCache_by_Addr
                0x000000009d018464       0x44 build/pic32mzef_c2_ak4954/production/_ext/839150702/sys_cache.o
                0x000000009d018464                SYS_CACHE_CleanDCache_by_Addr

.text.FATFS_close
                0x000000009d0184a8       0x44
 .text.FATFS_close
                0x000000009d0184a8       0x44 build/pic32mzef_c2_ak4954/production/_ext/344840758/sys_fs_fat_interface.o
                0x000000009d0184a8                FATFS_close

.text.FATFS_closedir
                0x000000009d0184ec       0x44
 .text.FATFS_closedir
                0x000000009d0184ec       0x44 build/pic32mzef_c2_ak4954/production/_ext/344840758/sys_fs_fat_interface.o
                0x000000009d0184ec                FATFS_closedir

.text.APP_SDCARD_AUDIO_Card_FileStatus
                0x000000009d018530       0x44
 .text.APP_SDCARD_AUDIO_Card_FileStatus
                0x000000009d018530       0x44 build/pic32mzef_c2_ak4954/production/_ext/1360937237/app_sdcard_audio_task.o
                0x000000009d018530                APP_SDCARD_AUDIO_Card_FileStatus

.text.main      0x000000009d018574       0x44
 .text.main     0x000000009d018574       0x44 build/pic32mzef_c2_ak4954/production/_ext/1360937237/main.o
                0x000000009d018574                main

.text           0x000000009d0185b8       0x44
 .text          0x000000009d0185b8       0x44 c:/program files/microchip/xc32/v4.21/bin/bin/../../lib/gcc/pic32mx/8.3.1/../../../../pic32mx/lib/fpu64\pic32_software_reset.o
                0x000000009d0185b8                __pic32_software_reset

.text.DRV_SDSPI_EventHandlerSet
                0x000000009d0185fc       0x40
 .text.DRV_SDSPI_EventHandlerSet
                0x000000009d0185fc       0x40 build/pic32mzef_c2_ak4954/production/_ext/1500991179/drv_sdspi.o
                0x000000009d0185fc                DRV_SDSPI_EventHandlerSet

.text.ld_clust  0x000000009d01863c       0x40
 .text.ld_clust
                0x000000009d01863c       0x40 build/pic32mzef_c2_ak4954/production/_ext/1867241316/ff.o

.text.FATFS_mkfs
                0x000000009d01867c       0x40
 .text.FATFS_mkfs
                0x000000009d01867c       0x40 build/pic32mzef_c2_ak4954/production/_ext/344840758/sys_fs_fat_interface.o
                0x000000009d01867c                FATFS_mkfs

.text.SYS_TIME_ResourceUnlock
                0x000000009d0186bc       0x40
 .text.SYS_TIME_ResourceUnlock
                0x000000009d0186bc       0x40 build/pic32mzef_c2_ak4954/production/_ext/784026422/sys_time.o

.text.SYS_Tasks
                0x000000009d0186fc       0x40
 .text.SYS_Tasks
                0x000000009d0186fc       0x40 build/pic32mzef_c2_ak4954/production/_ext/79412797/tasks.o
                0x000000009d0186fc                SYS_Tasks

.text.BSP_Initialize
                0x000000009d01873c       0x3c
 .text.BSP_Initialize
                0x000000009d01873c       0x3c build/pic32mzef_c2_ak4954/production/_ext/1477346291/bsp.o
                0x000000009d01873c                BSP_Initialize

.text.CORE_TIMER_InterruptHandler
                0x000000009d018778       0x3c
 .text.CORE_TIMER_InterruptHandler
                0x000000009d018778       0x3c build/pic32mzef_c2_ak4954/production/_ext/131824383/plib_coretimer.o
                0x000000009d018778                CORE_TIMER_InterruptHandler

.text.APP_SDCARD_AUDIO_Player_ReInitialize
                0x000000009d0187b4       0x3c
 .text.APP_SDCARD_AUDIO_Player_ReInitialize
                0x000000009d0187b4       0x3c build/pic32mzef_c2_ak4954/production/_ext/1360937237/app_sdcard_audio_task.o
                0x000000009d0187b4                APP_SDCARD_AUDIO_Player_ReInitialize

.text.__wrap_printf
                0x000000009d0187f0       0x3c
 .text.__wrap_printf
                0x000000009d0187f0       0x3c c:/program files/microchip/xc32/v4.21/bin/bin/../../lib/gcc/pic32mx/8.3.1/../../../../pic32mx/lib/fpu64\libc-musl.a(__sio_printf_dosux.o)
                0x000000009d0187f0                _printf_cdnopsuxX
                0x000000009d0187f0                _dprintf_cdnopsuxX

.text.__vfprintf
                0x000000009d01882c       0x3c
 .text.__vfprintf
                0x000000009d01882c       0x3c c:/program files/microchip/xc32/v4.21/bin/bin/../../lib/gcc/pic32mx/8.3.1/../../../../pic32mx/lib/fpu64\libc-musl.a(__int_vfprintf.o)
                0x000000009d01882c                __vfprintf

.text._DRV_I2S_ValidateClientHandle
                0x000000009d018868       0x38
 .text._DRV_I2S_ValidateClientHandle
                0x000000009d018868       0x38 build/pic32mzef_c2_ak4954/production/_ext/450163651/drv_i2s.o

.text._DRV_SDSPI_CmdResponseTimerStop
                0x000000009d0188a0       0x38
 .text._DRV_SDSPI_CmdResponseTimerStop
                0x000000009d0188a0       0x38 build/pic32mzef_c2_ak4954/production/_ext/1500991179/drv_sdspi_plib_interface.o
                0x000000009d0188a0                _DRV_SDSPI_CmdResponseTimerStop

.text._DRV_SDSPI_TimerStop
                0x000000009d0188d8       0x38
 .text._DRV_SDSPI_TimerStop
                0x000000009d0188d8       0x38 build/pic32mzef_c2_ak4954/production/_ext/1500991179/drv_sdspi_plib_interface.o
                0x000000009d0188d8                _DRV_SDSPI_TimerStop

.text.SYS_TIME_Counter64Update
                0x000000009d018910       0x38
 .text.SYS_TIME_Counter64Update
                0x000000009d018910       0x38 build/pic32mzef_c2_ak4954/production/_ext/784026422/sys_time.o

.text.SYS_TIME_GetElapsedCount
                0x000000009d018948       0x38
 .text.SYS_TIME_GetElapsedCount
                0x000000009d018948       0x38 build/pic32mzef_c2_ak4954/production/_ext/784026422/sys_time.o

.text.DECODER_Decode
                0x000000009d018980       0x38
 .text.DECODER_Decode
                0x000000009d018980       0x38 build/pic32mzef_c2_ak4954/production/_ext/1360937237/decoder.o
                0x000000009d018980                DECODER_Decode

.text.strcat    0x000000009d0189b8       0x38
 .text.strcat   0x000000009d0189b8       0x38 c:/program files/microchip/xc32/v4.21/bin/bin/../../lib/gcc/pic32mx/8.3.1/../../../../pic32mx/lib/fpu64\libc-musl.a(strcat.o)
                0x000000009d0189b8                strcat

.text.CORETIMER_Stop
                0x000000009d0189f0       0x34
 .text.CORETIMER_Stop
                0x000000009d0189f0       0x34 build/pic32mzef_c2_ak4954/production/_ext/131824383/plib_coretimer.o
                0x000000009d0189f0                CORETIMER_Stop

.text.UART6_Initialize
                0x000000009d018a24       0x34
 .text.UART6_Initialize
                0x000000009d018a24       0x34 build/pic32mzef_c2_ak4954/production/_ext/1543398859/plib_uart6.o
                0x000000009d018a24                UART6_Initialize

.text.f_chdrive
                0x000000009d018a58       0x34
 .text.f_chdrive
                0x000000009d018a58       0x34 build/pic32mzef_c2_ak4954/production/_ext/1867241316/ff.o
                0x000000009d018a58                f_chdrive

.text.APP_SDCARD_AUDIO_GetCompletedBufferIdx
                0x000000009d018a8c       0x34
 .text.APP_SDCARD_AUDIO_GetCompletedBufferIdx
                0x000000009d018a8c       0x34 build/pic32mzef_c2_ak4954/production/_ext/1360937237/app_sdcard_audio_task.o
                0x000000009d018a8c                APP_SDCARD_AUDIO_GetCompletedBufferIdx

.text.APP_SDCARD_AUDIO_Card_CloseFile
                0x000000009d018ac0       0x34
 .text.APP_SDCARD_AUDIO_Card_CloseFile
                0x000000009d018ac0       0x34 build/pic32mzef_c2_ak4954/production/_ext/1360937237/app_sdcard_audio_task.o
                0x000000009d018ac0                APP_SDCARD_AUDIO_Card_CloseFile

.text.DRV_I2C_ForcedWriteTransferAdd
                0x000000009d018af4       0x30
 .text.DRV_I2C_ForcedWriteTransferAdd
                0x000000009d018af4       0x30 build/pic32mzef_c2_ak4954/production/_ext/1337057836/drv_i2c.o
                0x000000009d018af4                DRV_I2C_ForcedWriteTransferAdd

.text.DRV_I2C_WriteTransferAdd
                0x000000009d018b24       0x30
 .text.DRV_I2C_WriteTransferAdd
                0x000000009d018b24       0x30 build/pic32mzef_c2_ak4954/production/_ext/1337057836/drv_i2c.o
                0x000000009d018b24                DRV_I2C_WriteTransferAdd

.text._DRV_SDSPI_SPIPlibCallbackHandler
                0x000000009d018b54       0x30
 .text._DRV_SDSPI_SPIPlibCallbackHandler
                0x000000009d018b54       0x30 build/pic32mzef_c2_ak4954/production/_ext/1500991179/drv_sdspi_plib_interface.o
                0x000000009d018b54                _DRV_SDSPI_SPIPlibCallbackHandler

.rodata         0x000000009d018b84       0x30
 .rodata        0x000000009d018b84       0x30 build/pic32mzef_c2_ak4954/production/_ext/1500991179/drv_sdspi_file_system.o
                0x000000009d018b84                sdspiMediaFunctions

.text.clst2sect
                0x000000009d018bb4       0x30
 .text.clst2sect
                0x000000009d018bb4       0x30 build/pic32mzef_c2_ak4954/production/_ext/1867241316/ff.o

.text.sum_sfn   0x000000009d018be4       0x30
 .text.sum_sfn  0x000000009d018be4       0x30 build/pic32mzef_c2_ak4954/production/_ext/1867241316/ff.o

.text.st_clust  0x000000009d018c14       0x30
 .text.st_clust
                0x000000009d018c14       0x30 build/pic32mzef_c2_ak4954/production/_ext/1867241316/ff.o

.text.SYS_FS_MEDIA_MANAGER_EventHandlerSet
                0x000000009d018c44       0x30
 .text.SYS_FS_MEDIA_MANAGER_EventHandlerSet
                0x000000009d018c44       0x30 build/pic32mzef_c2_ak4954/production/_ext/344840758/sys_fs_media_manager.o
                0x000000009d018c44                SYS_FS_MEDIA_MANAGER_EventHandlerSet

.text.FATFS_chdrive
                0x000000009d018c74       0x30
 .text.FATFS_chdrive
                0x000000009d018c74       0x30 build/pic32mzef_c2_ak4954/production/_ext/344840758/sys_fs_fat_interface.o
                0x000000009d018c74                FATFS_chdrive

.text.APP_SDCARD_AUDIO_isNoOutputBufferInUse
                0x000000009d018ca4       0x30
 .text.APP_SDCARD_AUDIO_isNoOutputBufferInUse
                0x000000009d018ca4       0x30 build/pic32mzef_c2_ak4954/production/_ext/1360937237/app_sdcard_audio_task.o
                0x000000009d018ca4                APP_SDCARD_AUDIO_isNoOutputBufferInUse

.text.APP_SDCARD_AUDIO_Card_GetFileSize
                0x000000009d018cd4       0x30
 .text.APP_SDCARD_AUDIO_Card_GetFileSize
                0x000000009d018cd4       0x30 build/pic32mzef_c2_ak4954/production/_ext/1360937237/app_sdcard_audio_task.o
                0x000000009d018cd4                APP_SDCARD_AUDIO_Card_GetFileSize

.text.APP_SDCARD_AUDIO_Card_SetFilePosition
                0x000000009d018d04       0x30
 .text.APP_SDCARD_AUDIO_Card_SetFilePosition
                0x000000009d018d04       0x30 build/pic32mzef_c2_ak4954/production/_ext/1360937237/app_sdcard_audio_task.o
                0x000000009d018d04                APP_SDCARD_AUDIO_Card_SetFilePosition

.text.APP_SDCARD_AUDIO_Card_ReopenTrack
                0x000000009d018d34       0x30
 .text.APP_SDCARD_AUDIO_Card_ReopenTrack
                0x000000009d018d34       0x30 build/pic32mzef_c2_ak4954/production/_ext/1360937237/app_sdcard_audio_task.o
                0x000000009d018d34                APP_SDCARD_AUDIO_Card_ReopenTrack

.text.CORETIMER_Initialize
                0x000000009d018d64       0x2c
 .text.CORETIMER_Initialize
                0x000000009d018d64       0x2c build/pic32mzef_c2_ak4954/production/_ext/131824383/plib_coretimer.o
                0x000000009d018d64                CORETIMER_Initialize

.text.ld_dword  0x000000009d018d90       0x2c
 .text.ld_dword
                0x000000009d018d90       0x2c build/pic32mzef_c2_ak4954/production/_ext/1867241316/ff.o

.text.SYS_INT_SourceRestore
                0x000000009d018dbc       0x2c
 .text.SYS_INT_SourceRestore
                0x000000009d018dbc       0x2c build/pic32mzef_c2_ak4954/production/_ext/386225584/sys_int.o
                0x000000009d018dbc                SYS_INT_SourceRestore

.text.APP_SDCARD_AUDIO_hasAllBuffersCompleted
                0x000000009d018de8       0x2c
 .text.APP_SDCARD_AUDIO_hasAllBuffersCompleted
                0x000000009d018de8       0x2c build/pic32mzef_c2_ak4954/production/_ext/1360937237/app_sdcard_audio_task.o
                0x000000009d018de8                APP_SDCARD_AUDIO_hasAllBuffersCompleted

.text.DRV_SDSPI_AsyncWrite
                0x000000009d018e14       0x28
 .text.DRV_SDSPI_AsyncWrite
                0x000000009d018e14       0x28 build/pic32mzef_c2_ak4954/production/_ext/1500991179/drv_sdspi.o
                0x000000009d018e14                DRV_SDSPI_AsyncWrite

.text.DRV_SDSPI_RegisterWithSysFs
                0x000000009d018e3c       0x28
 .text.DRV_SDSPI_RegisterWithSysFs
                0x000000009d018e3c       0x28 build/pic32mzef_c2_ak4954/production/_ext/1500991179/drv_sdspi_file_system.o
                0x000000009d018e3c                DRV_SDSPI_RegisterWithSysFs

.text.EVIC_SourceEnable
                0x000000009d018e64       0x28
 .text.EVIC_SourceEnable
                0x000000009d018e64       0x28 build/pic32mzef_c2_ak4954/production/_ext/1543855630/plib_evic.o
                0x000000009d018e64                EVIC_SourceEnable

.text.EVIC_SourceDisable
                0x000000009d018e8c       0x28
 .text.EVIC_SourceDisable
                0x000000009d018e8c       0x28 build/pic32mzef_c2_ak4954/production/_ext/1543855630/plib_evic.o
                0x000000009d018e8c                EVIC_SourceDisable

.text.EVIC_INT_Restore
                0x000000009d018eb4       0x28
 .text.EVIC_INT_Restore
                0x000000009d018eb4       0x28 build/pic32mzef_c2_ak4954/production/_ext/1543855630/plib_evic.o
                0x000000009d018eb4                EVIC_INT_Restore

.text.SPI1_Read
                0x000000009d018edc       0x28
 .text.SPI1_Read
                0x000000009d018edc       0x28 build/pic32mzef_c2_ak4954/production/_ext/603446335/plib_spi1_master.o
                0x000000009d018edc                SPI1_Read

.text.SYS_FS_MEDIA_MANAGER_GetMediaGeometry
                0x000000009d018f04       0x28
 .text.SYS_FS_MEDIA_MANAGER_GetMediaGeometry
                0x000000009d018f04       0x28 build/pic32mzef_c2_ak4954/production/_ext/344840758/sys_fs_media_manager.o
                0x000000009d018f04                SYS_FS_MEDIA_MANAGER_GetMediaGeometry

.text.DRV_SDSPI_AsyncRead
                0x000000009d018f2c       0x24
 .text.DRV_SDSPI_AsyncRead
                0x000000009d018f2c       0x24 build/pic32mzef_c2_ak4954/production/_ext/1500991179/drv_sdspi.o
                0x000000009d018f2c                DRV_SDSPI_AsyncRead

.text.CACHE_DataCacheClean
                0x000000009d018f50       0x24
 .text.CACHE_DataCacheClean
                0x000000009d018f50       0x24 build/pic32mzef_c2_ak4954/production/_ext/617362437/plib_cache.o
                0x000000009d018f50                CACHE_DataCacheClean

.text.CACHE_DataCacheInvalidate
                0x000000009d018f74       0x24
 .text.CACHE_DataCacheInvalidate
                0x000000009d018f74       0x24 build/pic32mzef_c2_ak4954/production/_ext/617362437/plib_cache.o
                0x000000009d018f74                CACHE_DataCacheInvalidate

.text.SYS_DMA_AddressingModeSetup
                0x000000009d018f98       0x24
 .text.SYS_DMA_AddressingModeSetup
                0x000000009d018f98       0x24 build/pic32mzef_c2_ak4954/production/_ext/2050519836/sys_dma.o
                0x000000009d018f98                SYS_DMA_AddressingModeSetup

.text.mem_cpy   0x000000009d018fbc       0x24
 .text.mem_cpy  0x000000009d018fbc       0x24 build/pic32mzef_c2_ak4954/production/_ext/1867241316/ff.o

.text.disk_initialize
                0x000000009d018fe0       0x24
 .text.disk_initialize
                0x000000009d018fe0       0x24 build/pic32mzef_c2_ak4954/production/_ext/1892335699/diskio.o
                0x000000009d018fe0                disk_initialize

.text.APP_SDCARD_AUDIO_ResetBuffers
                0x000000009d019004       0x24
 .text.APP_SDCARD_AUDIO_ResetBuffers
                0x000000009d019004       0x24 build/pic32mzef_c2_ak4954/production/_ext/1360937237/app_sdcard_audio_task.o
                0x000000009d019004                APP_SDCARD_AUDIO_ResetBuffers

.text.I2S2_LRCLK_Get
                0x000000009d019028       0x20
 .text.I2S2_LRCLK_Get
                0x000000009d019028       0x20 build/pic32mzef_c2_ak4954/production/_ext/563155524/plib_i2s2.o
                0x000000009d019028                I2S2_LRCLK_Get

.text.EVIC_SourceIsEnabled
                0x000000009d019048       0x20
 .text.EVIC_SourceIsEnabled
                0x000000009d019048       0x20 build/pic32mzef_c2_ak4954/production/_ext/1543855630/plib_evic.o
                0x000000009d019048                EVIC_SourceIsEnabled

.text.EVIC_INT_Disable
                0x000000009d019068       0x20
 .text.EVIC_INT_Disable
                0x000000009d019068       0x20 build/pic32mzef_c2_ak4954/production/_ext/1543855630/plib_evic.o
                0x000000009d019068                EVIC_INT_Disable

.text.SPI1_Write
                0x000000009d019088       0x20
 .text.SPI1_Write
                0x000000009d019088       0x20 build/pic32mzef_c2_ak4954/production/_ext/603446335/plib_spi1_master.o
                0x000000009d019088                SPI1_Write

.text.SYS_DMA_DataWidthSetup
                0x000000009d0190a8       0x20
 .text.SYS_DMA_DataWidthSetup
                0x000000009d0190a8       0x20 build/pic32mzef_c2_ak4954/production/_ext/2050519836/sys_dma.o
                0x000000009d0190a8                SYS_DMA_DataWidthSetup

.text.st_dword  0x000000009d0190c8       0x20
 .text.st_dword
                0x000000009d0190c8       0x20 build/pic32mzef_c2_ak4954/production/_ext/1867241316/ff.o

.rodata.str1.4  0x000000009d0190e8       0x40
 .rodata.str1.4
                0x000000009d0190e8       0x20 build/pic32mzef_c2_ak4954/production/_ext/344840758/sys_fs_media_manager.o
 .rodata.str1.4
                0x000000009d019108       0x20 build/pic32mzef_c2_ak4954/production/_ext/79412797/initialization.o

.text.APP_SDCARD_AUDIO_isOutputBufferFull
                0x000000009d019128       0x20
 .text.APP_SDCARD_AUDIO_isOutputBufferFull
                0x000000009d019128       0x20 build/pic32mzef_c2_ak4954/production/_ext/1360937237/app_sdcard_audio_task.o
                0x000000009d019128                APP_SDCARD_AUDIO_isOutputBufferFull

.text.APP_SDCARD_AUDIO_Card_EndOfFile
                0x000000009d019148       0x20
 .text.APP_SDCARD_AUDIO_Card_EndOfFile
                0x000000009d019148       0x20 build/pic32mzef_c2_ak4954/production/_ext/1360937237/app_sdcard_audio_task.o
                0x000000009d019148                APP_SDCARD_AUDIO_Card_EndOfFile

.text.dinit.startup
                0x000000009d019168       0x20
 .text.dinit.startup
                0x000000009d019168       0x20 c:/program files/microchip/xc32/v4.21/bin/bin/../../lib/gcc/pic32mx/8.3.1/../../../../pic32mx/lib/fpu64\libpic32.a(pic32_data_init_wrapper.o)
                0x000000009d019168                __pic32_data_init

.text.__fwrite_min
                0x000000009d019188       0x20
 .text.__fwrite_min
                0x000000009d019188       0x20 c:/program files/microchip/xc32/v4.21/bin/bin/../../lib/gcc/pic32mx/8.3.1/../../../../pic32mx/lib/fpu64\libc-musl.a(__out.o)
                0x000000009d019188                __fwrite
                0x000000009d019188                __stdio_write
                0x000000009d019188                __stdio_write_unbuffered

.text.CACHE_CacheCoherencyGet
                0x000000009d0191a8       0x1c
 .text.CACHE_CacheCoherencyGet
                0x000000009d0191a8       0x1c build/pic32mzef_c2_ak4954/production/_ext/617362437/plib_cache.o
                0x000000009d0191a8                CACHE_CacheCoherencyGet

.text.CORETIMER_CompareSet
                0x000000009d0191c4       0x1c
 .text.CORETIMER_CompareSet
                0x000000009d0191c4       0x1c build/pic32mzef_c2_ak4954/production/_ext/131824383/plib_coretimer.o
                0x000000009d0191c4                CORETIMER_CompareSet

.text.DMAC_ChannelCallbackRegister
                0x000000009d0191e0       0x1c
 .text.DMAC_ChannelCallbackRegister
                0x000000009d0191e0       0x1c build/pic32mzef_c2_ak4954/production/_ext/1543894318/plib_dmac.o
                0x000000009d0191e0                DMAC_ChannelCallbackRegister

.text.GPIO_PortSet
                0x000000009d0191fc       0x1c
 .text.GPIO_PortSet
                0x000000009d0191fc       0x1c build/pic32mzef_c2_ak4954/production/_ext/1543801802/plib_gpio.o
                0x000000009d0191fc                GPIO_PortSet

.text.GPIO_PortClear
                0x000000009d019218       0x1c
 .text.GPIO_PortClear
                0x000000009d019218       0x1c build/pic32mzef_c2_ak4954/production/_ext/1543801802/plib_gpio.o
                0x000000009d019218                GPIO_PortClear

.text.I2C1_CallbackRegister
                0x000000009d019234       0x1c
 .text.I2C1_CallbackRegister
                0x000000009d019234       0x1c build/pic32mzef_c2_ak4954/production/_ext/232538270/plib_i2c1_master.o
                0x000000009d019234                I2C1_CallbackRegister

.text.get_fattime
                0x000000009d019250       0x1c
 .text.get_fattime
                0x000000009d019250       0x1c build/pic32mzef_c2_ak4954/production/_ext/1892335699/diskio.o
                0x000000009d019250                get_fattime

.text.SYS_FS_Tasks
                0x000000009d01926c       0x1c
 .text.SYS_FS_Tasks
                0x000000009d01926c       0x1c build/pic32mzef_c2_ak4954/production/_ext/344840758/sys_fs.o
                0x000000009d01926c                SYS_FS_Tasks

.text.SYS_FS_EventHandlerSet
                0x000000009d019288       0x1c
 .text.SYS_FS_EventHandlerSet
                0x000000009d019288       0x1c build/pic32mzef_c2_ak4954/production/_ext/344840758/sys_fs.o
                0x000000009d019288                SYS_FS_EventHandlerSet

.text.FATFS_read
                0x000000009d0192a4       0x1c
 .text.FATFS_read
                0x000000009d0192a4       0x1c build/pic32mzef_c2_ak4954/production/_ext/344840758/sys_fs_fat_interface.o
                0x000000009d0192a4                FATFS_read

.text.FATFS_lseek
                0x000000009d0192c0       0x1c
 .text.FATFS_lseek
                0x000000009d0192c0       0x1c build/pic32mzef_c2_ak4954/production/_ext/344840758/sys_fs_fat_interface.o
                0x000000009d0192c0                FATFS_lseek

.text.FATFS_getlabel
                0x000000009d0192dc       0x1c
 .text.FATFS_getlabel
                0x000000009d0192dc       0x1c build/pic32mzef_c2_ak4954/production/_ext/344840758/sys_fs_fat_interface.o
                0x000000009d0192dc                FATFS_getlabel

.text.FATFS_getcwd
                0x000000009d0192f8       0x1c
 .text.FATFS_getcwd
                0x000000009d0192f8       0x1c build/pic32mzef_c2_ak4954/production/_ext/344840758/sys_fs_fat_interface.o
                0x000000009d0192f8                FATFS_getcwd

.text.FATFS_gets
                0x000000009d019314       0x1c
 .text.FATFS_gets
                0x000000009d019314       0x1c build/pic32mzef_c2_ak4954/production/_ext/344840758/sys_fs_fat_interface.o
                0x000000009d019314                FATFS_gets

.text.FATFS_chdir
                0x000000009d019330       0x1c
 .text.FATFS_chdir
                0x000000009d019330       0x1c build/pic32mzef_c2_ak4954/production/_ext/344840758/sys_fs_fat_interface.o
                0x000000009d019330                FATFS_chdir

.text.FATFS_write
                0x000000009d01934c       0x1c
 .text.FATFS_write
                0x000000009d01934c       0x1c build/pic32mzef_c2_ak4954/production/_ext/344840758/sys_fs_fat_interface.o
                0x000000009d01934c                FATFS_write

.text.FATFS_mkdir
                0x000000009d019368       0x1c
 .text.FATFS_mkdir
                0x000000009d019368       0x1c build/pic32mzef_c2_ak4954/production/_ext/344840758/sys_fs_fat_interface.o
                0x000000009d019368                FATFS_mkdir

.text.FATFS_unlink
                0x000000009d019384       0x1c
 .text.FATFS_unlink
                0x000000009d019384       0x1c build/pic32mzef_c2_ak4954/production/_ext/344840758/sys_fs_fat_interface.o
                0x000000009d019384                FATFS_unlink

.text.FATFS_setlabel
                0x000000009d0193a0       0x1c
 .text.FATFS_setlabel
                0x000000009d0193a0       0x1c build/pic32mzef_c2_ak4954/production/_ext/344840758/sys_fs_fat_interface.o
                0x000000009d0193a0                FATFS_setlabel

.text.FATFS_truncate
                0x000000009d0193bc       0x1c
 .text.FATFS_truncate
                0x000000009d0193bc       0x1c build/pic32mzef_c2_ak4954/production/_ext/344840758/sys_fs_fat_interface.o
                0x000000009d0193bc                FATFS_truncate

.text.FATFS_chmod
                0x000000009d0193d8       0x1c
 .text.FATFS_chmod
                0x000000009d0193d8       0x1c build/pic32mzef_c2_ak4954/production/_ext/344840758/sys_fs_fat_interface.o
                0x000000009d0193d8                FATFS_chmod

.text.FATFS_utime
                0x000000009d0193f4       0x1c
 .text.FATFS_utime
                0x000000009d0193f4       0x1c build/pic32mzef_c2_ak4954/production/_ext/344840758/sys_fs_fat_interface.o
                0x000000009d0193f4                FATFS_utime

.text.FATFS_rename
                0x000000009d019410       0x1c
 .text.FATFS_rename
                0x000000009d019410       0x1c build/pic32mzef_c2_ak4954/production/_ext/344840758/sys_fs_fat_interface.o
                0x000000009d019410                FATFS_rename

.text.FATFS_sync
                0x000000009d01942c       0x1c
 .text.FATFS_sync
                0x000000009d01942c       0x1c build/pic32mzef_c2_ak4954/production/_ext/344840758/sys_fs_fat_interface.o
                0x000000009d01942c                FATFS_sync

.text.FATFS_putc
                0x000000009d019448       0x1c
 .text.FATFS_putc
                0x000000009d019448       0x1c build/pic32mzef_c2_ak4954/production/_ext/344840758/sys_fs_fat_interface.o
                0x000000009d019448                FATFS_putc

.text.FATFS_puts
                0x000000009d019464       0x1c
 .text.FATFS_puts
                0x000000009d019464       0x1c build/pic32mzef_c2_ak4954/production/_ext/344840758/sys_fs_fat_interface.o
                0x000000009d019464                FATFS_puts

.text.FATFS_printf
                0x000000009d019480       0x1c
 .text.FATFS_printf
                0x000000009d019480       0x1c build/pic32mzef_c2_ak4954/production/_ext/344840758/sys_fs_fat_interface.o
                0x000000009d019480                FATFS_printf

.text.FATFS_fdisk
                0x000000009d01949c       0x1c
 .text.FATFS_fdisk
                0x000000009d01949c       0x1c build/pic32mzef_c2_ak4954/production/_ext/344840758/sys_fs_fat_interface.o
                0x000000009d01949c                FATFS_fdisk

.text.SYS_INT_Disable
                0x000000009d0194b8       0x1c
 .text.SYS_INT_Disable
                0x000000009d0194b8       0x1c build/pic32mzef_c2_ak4954/production/_ext/386225584/sys_int.o
                0x000000009d0194b8                SYS_INT_Disable

.text.SYS_INT_Restore
                0x000000009d0194d4       0x1c
 .text.SYS_INT_Restore
                0x000000009d0194d4       0x1c build/pic32mzef_c2_ak4954/production/_ext/386225584/sys_int.o
                0x000000009d0194d4                SYS_INT_Restore

.text.APP_SDCARD_AUDIO_Card_FileNameGet
                0x000000009d0194f0       0x1c
 .text.APP_SDCARD_AUDIO_Card_FileNameGet
                0x000000009d0194f0       0x1c build/pic32mzef_c2_ak4954/production/_ext/1360937237/app_sdcard_audio_task.o
                0x000000009d0194f0                APP_SDCARD_AUDIO_Card_FileNameGet

.text.APP_SDCARD_AUDIO_NextTrackSet
                0x000000009d01950c       0x1c
 .text.APP_SDCARD_AUDIO_NextTrackSet
                0x000000009d01950c       0x1c build/pic32mzef_c2_ak4954/production/_ext/1360937237/app_sdcard_audio_task.o
                0x000000009d01950c                APP_SDCARD_AUDIO_NextTrackSet

.text.tolower   0x000000009d019528       0x1c
 .text.tolower  0x000000009d019528       0x1c c:/program files/microchip/xc32/v4.21/bin/bin/../../lib/gcc/pic32mx/8.3.1/../../../../pic32mx/lib/fpu64\libc-musl.a(tolower.o)
                0x000000009d019528                tolower

.text.toupper   0x000000009d019544       0x1c
 .text.toupper  0x000000009d019544       0x1c c:/program files/microchip/xc32/v4.21/bin/bin/../../lib/gcc/pic32mx/8.3.1/../../../../pic32mx/lib/fpu64\libc-musl.a(toupper.o)
                0x000000009d019544                toupper

.MIPS.abiflags  0x000000009d019560       0x18
 .MIPS.abiflags
                0x000000009d019560       0x18 c:/program files/microchip/xc32/v4.21/bin/bin/../../lib/gcc/pic32mx/8.3.1/../../../../pic32mx/lib/fpu64\debug-exception-return.o

.rodata.cst8    0x000000009d019578       0x18
 .rodata.cst8   0x000000009d019578       0x18 build/pic32mzef_c2_ak4954/production/_ext/563155524/plib_i2s2.o

.text.CORETIMER_CounterGet
                0x000000009d019590       0x18
 .text.CORETIMER_CounterGet
                0x000000009d019590       0x18 build/pic32mzef_c2_ak4954/production/_ext/131824383/plib_coretimer.o
                0x000000009d019590                CORETIMER_CounterGet

.rodata.cst8    0x000000009d0195a8       0x18
 .rodata.cst8   0x000000009d0195a8       0x18 build/pic32mzef_c2_ak4954/production/_ext/232538270/plib_i2c1_master.o

.text.mem_set   0x000000009d0195c0       0x18
 .text.mem_set  0x000000009d0195c0       0x18 build/pic32mzef_c2_ak4954/production/_ext/1867241316/ff.o

.text._general_exception_handler
                0x000000009d0195d8       0x18
 .text._general_exception_handler
                0x000000009d0195d8       0x18 build/pic32mzef_c2_ak4954/production/_ext/79412797/exceptions.o
                0x000000009d0195d8                _general_exception_handler

.text._bootstrap_exception_handler
                0x000000009d0195f0       0x18
 .text._bootstrap_exception_handler
                0x000000009d0195f0       0x18 build/pic32mzef_c2_ak4954/production/_ext/79412797/exceptions.o
                0x000000009d0195f0                _bootstrap_exception_handler

.text._cache_err_exception_handler
                0x000000009d019608       0x18
 .text._cache_err_exception_handler
                0x000000009d019608       0x18 build/pic32mzef_c2_ak4954/production/_ext/79412797/exceptions.o
                0x000000009d019608                _cache_err_exception_handler

.text._simple_tlb_refill_exception_handler
                0x000000009d019620       0x18
 .text._simple_tlb_refill_exception_handler
                0x000000009d019620       0x18 build/pic32mzef_c2_ak4954/production/_ext/79412797/exceptions.o
                0x000000009d019620                _simple_tlb_refill_exception_handler

.text           0x000000009d019638       0x18
 .text          0x000000009d019638       0x18 c:/program files/microchip/xc32/v4.21/bin/bin/../../lib/gcc/pic32mx/8.3.1/../../../../pic32mx/lib/fpu64\libpic32.a(default-nmi-handler.o)
                0x000000009d019638                _nmi_handler

.rodata         0x000000009d019650       0x18
 .rodata        0x000000009d019650       0x18 c:/program files/microchip/xc32/v4.21/bin/bin/../../lib/gcc/pic32mx/8.3.1/../../../../pic32mx/lib/fpu64\libc-musl.a(__printf_core.o)

.text.I2C1_ErrorGet
                0x000000009d019668       0x14
 .text.I2C1_ErrorGet
                0x000000009d019668       0x14 build/pic32mzef_c2_ak4954/production/_ext/232538270/plib_i2c1_master.o
                0x000000009d019668                I2C1_ErrorGet

.text.SPI1_IsTransmitterBusy
                0x000000009d01967c       0x14
 .text.SPI1_IsTransmitterBusy
                0x000000009d01967c       0x14 build/pic32mzef_c2_ak4954/production/_ext/603446335/plib_spi1_master.o
                0x000000009d01967c                SPI1_IsTransmitterBusy

.text.SPI1_CallbackRegister
                0x000000009d019690       0x14
 .text.SPI1_CallbackRegister
                0x000000009d019690       0x14 build/pic32mzef_c2_ak4954/production/_ext/603446335/plib_spi1_master.o
                0x000000009d019690                SPI1_CallbackRegister

.text.FATFS_eof
                0x000000009d0196a4       0x14
 .text.FATFS_eof
                0x000000009d0196a4       0x14 build/pic32mzef_c2_ak4954/production/_ext/344840758/sys_fs_fat_interface.o
                0x000000009d0196a4                FATFS_eof

.text.CORETIMER_CallbackSet
                0x000000009d0196b8       0x10
 .text.CORETIMER_CallbackSet
                0x000000009d0196b8       0x10 build/pic32mzef_c2_ak4954/production/_ext/131824383/plib_coretimer.o
                0x000000009d0196b8                CORETIMER_CallbackSet

.rodata.str1.4  0x000000009d0196c8       0x10
 .rodata.str1.4
                0x000000009d0196c8       0x10 build/pic32mzef_c2_ak4954/production/_ext/1360937237/app_sdcard_audio_task.o

.text._APP_BUTTON_PRESS_DebounceTimerHandler
                0x000000009d0196d8       0x10
 .text._APP_BUTTON_PRESS_DebounceTimerHandler
                0x000000009d0196d8       0x10 build/pic32mzef_c2_ak4954/production/_ext/1360937237/app.o

.text.DRV_SDSPI_TimerCallback
                0x000000009d0196e8        0xc
 .text.DRV_SDSPI_TimerCallback
                0x000000009d0196e8        0xc build/pic32mzef_c2_ak4954/production/_ext/1500991179/drv_sdspi_plib_interface.o

.text.CORETIMER_FrequencyGet
                0x000000009d0196f4        0xc
 .text.CORETIMER_FrequencyGet
                0x000000009d0196f4        0xc build/pic32mzef_c2_ak4954/production/_ext/131824383/plib_coretimer.o
                0x000000009d0196f4                CORETIMER_FrequencyGet

.text.SYS_FS_MEDIA_MANAGER_RegisterTransferHandler
                0x000000009d019700        0xc
 .text.SYS_FS_MEDIA_MANAGER_RegisterTransferHandler
                0x000000009d019700        0xc build/pic32mzef_c2_ak4954/production/_ext/344840758/sys_fs_media_manager.o
                0x000000009d019700                SYS_FS_MEDIA_MANAGER_RegisterTransferHandler

.text.FATFS_error
                0x000000009d01970c        0xc
 .text.FATFS_error
                0x000000009d01970c        0xc build/pic32mzef_c2_ak4954/production/_ext/344840758/sys_fs_fat_interface.o
                0x000000009d01970c                FATFS_error

.text.APP_SDCARD_AUDIO_RegisterStreamSource
                0x000000009d019718        0xc
 .text.APP_SDCARD_AUDIO_RegisterStreamSource
                0x000000009d019718        0xc build/pic32mzef_c2_ak4954/production/_ext/1360937237/app_sdcard_audio_task.o
                0x000000009d019718                APP_SDCARD_AUDIO_RegisterStreamSource

.text.APP_SDCARD_AUDIO_Player_GetInstance
                0x000000009d019724        0xc
 .text.APP_SDCARD_AUDIO_Player_GetInstance
                0x000000009d019724        0xc build/pic32mzef_c2_ak4954/production/_ext/1360937237/app_sdcard_audio_task.o
                0x000000009d019724                APP_SDCARD_AUDIO_Player_GetInstance

.text.APP_StreamSourceGet
                0x000000009d019730        0xc
 .text.APP_StreamSourceGet
                0x000000009d019730        0xc build/pic32mzef_c2_ak4954/production/_ext/1360937237/app.o
                0x000000009d019730                APP_StreamSourceGet

.text.isWAVdecoder_enabled
                0x000000009d01973c        0x8
 .text.isWAVdecoder_enabled
                0x000000009d01973c        0x8 build/pic32mzef_c2_ak4954/production/_ext/212299867/wav_dec.o
                0x000000009d01973c                isWAVdecoder_enabled

.rodata.cst4    0x000000009d019744        0x8
 .rodata.cst4   0x000000009d019744        0x8 build/pic32mzef_c2_ak4954/production/_ext/232538270/plib_i2c1_master.o

.text._mon_putc
                0x000000009d01974c        0x8
 .text._mon_putc
                0x000000009d01974c        0x8 build/pic32mzef_c2_ak4954/production/_ext/1888667843/xc32_monitor.o
                0x000000009d01974c                _mon_putc

.text.disk_status
                0x000000009d019754        0x8
 .text.disk_status
                0x000000009d019754        0x8 build/pic32mzef_c2_ak4954/production/_ext/1892335699/diskio.o
                0x000000009d019754                disk_status

.rodata.str1.4  0x000000009d01975c        0x8
 .rodata.str1.4
                0x000000009d01975c        0x8 build/pic32mzef_c2_ak4954/production/_ext/344840758/sys_fs.o

.text.SYS_FS_Error
                0x000000009d019764        0x8
 .text.SYS_FS_Error
                0x000000009d019764        0x8 build/pic32mzef_c2_ak4954/production/_ext/344840758/sys_fs.o
                0x000000009d019764                SYS_FS_Error

.rodata         0x000000009d01976c        0x8
 .rodata        0x000000009d01976c        0x8 build/pic32mzef_c2_ak4954/production/_ext/344840758/sys_fs_media_manager.o
                0x000000009d01976c                gPartitionTypeOffset

.text.FATFS_tell
                0x000000009d019774        0x8
 .text.FATFS_tell
                0x000000009d019774        0x8 build/pic32mzef_c2_ak4954/production/_ext/344840758/sys_fs_fat_interface.o
                0x000000009d019774                FATFS_tell

.text.FATFS_size
                0x000000009d01977c        0x8
 .text.FATFS_size
                0x000000009d01977c        0x8 build/pic32mzef_c2_ak4954/production/_ext/344840758/sys_fs_fat_interface.o
                0x000000009d01977c                FATFS_size

.text.DECODER_Cleanup
                0x000000009d019784        0x8
 .text.DECODER_Cleanup
                0x000000009d019784        0x8 build/pic32mzef_c2_ak4954/production/_ext/1360937237/decoder.o
                0x000000009d019784                DECODER_Cleanup

.text._on_reset
                0x000000009d01978c        0x8
 .text._on_reset
                0x000000009d01978c        0x8 c:/program files/microchip/xc32/v4.21/bin/bin/../../lib/gcc/pic32mx/8.3.1/../../../../pic32mx/lib/fpu64\libpic32.a(default-on-reset.o)
                0x000000009d01978c                _on_reset

.text._on_bootstrap
                0x000000009d019794        0x8
 .text._on_bootstrap
                0x000000009d019794        0x8 c:/program files/microchip/xc32/v4.21/bin/bin/../../lib/gcc/pic32mx/8.3.1/../../../../pic32mx/lib/fpu64\libpic32.a(default-on-bootstrap.o)
                0x000000009d019794                _on_bootstrap

.text.__dummy_fmt4
                0x000000009d01979c        0x8
 .text.__dummy_fmt4
                0x000000009d01979c        0x8 c:/program files/microchip/xc32/v4.21/bin/bin/../../lib/gcc/pic32mx/8.3.1/../../../../pic32mx/lib/fpu64\libc-musl.a(__printf_core.o)
                0x000000009d01979c                __fmt_fp
                0x000000009d01979c                __fmt_a

.rodata.str1.4  0x000000009d0197a4        0x8
 .rodata.str1.4
                0x000000009d0197a4        0x8 c:/program files/microchip/xc32/v4.21/bin/bin/../../lib/gcc/pic32mx/8.3.1/../../../../pic32mx/lib/fpu64\libc-musl.a(__printf_core.o)

.text.__dummy   0x000000009d0197ac        0x8
 .text.__dummy  0x000000009d0197ac        0x8 c:/program files/microchip/xc32/v4.21/bin/bin/../../lib/gcc/pic32mx/8.3.1/../../../../pic32mx/lib/fpu64\libc-musl.a(__fopen.o)
                0x000000009d0197ac                __stdio_seek

.text.lseek     0x000000009d0197b4        0x8
 .text.lseek    0x000000009d0197b4        0x8 c:/program files/microchip/xc32/v4.21/bin/bin/../../lib/gcc/pic32mx/8.3.1/../../../../pic32mx/lib/fpu64\libpic32.a(lseek.o)
                0x000000009d0197b4                lseek

.text.close     0x000000009d0197bc        0x8
 .text.close    0x000000009d0197bc        0x8 c:/program files/microchip/xc32/v4.21/bin/bin/../../lib/gcc/pic32mx/8.3.1/../../../../pic32mx/lib/fpu64\libpic32.a(close.o)
                0x000000009d0197bc                close
